BL51 BANKED LINKER/LOCATER V6.22.2.0                                                    05/15/2021  18:02:00  PAGE 1


BL51 BANKED LINKER/LOCATER V6.22.2.0, INVOKED BY:
C:\KEIL_V5\C51\BIN\BL51.EXE .\Objects\STARTUP.obj, .\Objects\main.obj, .\Objects\irfapp_main.obj, .\Objects\main_func.ob
>> j, .\Objects\main_init.obj, .\Objects\floor.obj, .\Objects\irf.obj, .\Objects\motor.obj, .\Objects\relay.obj, .\Objec
>> ts\adc.obj, .\Objects\delay.obj, .\Objects\gpio.obj, .\Objects\pwm.obj, .\Objects\soft_uart.obj, .\Objects\timer.obj,
>>  .\Objects\uart.obj, .\Objects\queue.obj, .\Objects\xor.obj TO .\Objects\motor_test PRINT (.\Listings\motor_test.m51)
>>  RAMSIZE (256) CODE (0X0000-0X47FF)


MEMORY MODEL: LARGE WITH FLOATING POINT ARITHMETIC


INPUT MODULES INCLUDED:
  .\Objects\STARTUP.obj (?C_STARTUP)
  .\Objects\main.obj (MAIN)
  .\Objects\irfapp_main.obj (IRFAPP_MAIN)
  .\Objects\main_func.obj (MAIN_FUNC)
  .\Objects\main_init.obj (MAIN_INIT)
  .\Objects\floor.obj (FLOOR)
  .\Objects\irf.obj (IRF)
  .\Objects\motor.obj (MOTOR)
  .\Objects\relay.obj (RELAY)
  .\Objects\adc.obj (ADC)
  .\Objects\delay.obj (DELAY)
  .\Objects\gpio.obj (GPIO)
  .\Objects\pwm.obj (PWM)
  .\Objects\soft_uart.obj (SOFT_UART)
  .\Objects\timer.obj (TIMER)
  .\Objects\uart.obj (UART)
  .\Objects\queue.obj (QUEUE)
  .\Objects\xor.obj (XOR)
  C:\KEIL_V5\C51\LIB\C51FPL.LIB (?C?FCAST)
  C:\KEIL_V5\C51\LIB\C51FPL.LIB (?C?CASTF)
  C:\KEIL_V5\C51\LIB\C51L.LIB (?C_INIT)
  C:\KEIL_V5\C51\LIB\C51L.LIB (?C?COPY)
  C:\KEIL_V5\C51\LIB\C51L.LIB (?C?CLDPTR)
  C:\KEIL_V5\C51\LIB\C51L.LIB (?C?CLDOPTR)
  C:\KEIL_V5\C51\LIB\C51L.LIB (?C?CILDOPTR)
  C:\KEIL_V5\C51\LIB\C51L.LIB (?C?CSTOPTR)
  C:\KEIL_V5\C51\LIB\C51L.LIB (?C?IMUL)
  C:\KEIL_V5\C51\LIB\C51L.LIB (?C?UIDIV)
  C:\KEIL_V5\C51\LIB\C51L.LIB (?C?ILDIX)
  C:\KEIL_V5\C51\LIB\C51L.LIB (?C?ILDOPTR)
  C:\KEIL_V5\C51\LIB\C51L.LIB (?C?IILDOPTR)
  C:\KEIL_V5\C51\LIB\C51L.LIB (?C?ISTOPTR)
  C:\KEIL_V5\C51\LIB\C51L.LIB (?C?ULDIV)
  C:\KEIL_V5\C51\LIB\C51L.LIB (?C?LNEG)
  C:\KEIL_V5\C51\LIB\C51L.LIB (?C?ULCMP)
  C:\KEIL_V5\C51\LIB\C51L.LIB (?C?ULSHR)
  C:\KEIL_V5\C51\LIB\C51L.LIB (?C?LSTXDATA)
  C:\KEIL_V5\C51\LIB\C51L.LIB (?C?LSTKXDATA)
  C:\KEIL_V5\C51\LIB\C51L.LIB (?C?PLDPTR)
  C:\KEIL_V5\C51\LIB\C51L.LIB (?C?PSTPTR)
  C:\KEIL_V5\C51\LIB\C51L.LIB (?C?CCASE)
  C:\KEIL_V5\C51\LIB\C51L.LIB (?C?ICALL)
  C:\KEIL_V5\C51\LIB\C51L.LIB (?C?IILDX)
  C:\KEIL_V5\C51\LIB\C51L.LIB (?C?PLDIDATA)
  C:\KEIL_V5\C51\LIB\C51L.LIB (?C?PSTIDATA)
  C:\KEIL_V5\C51\LIB\C51L.LIB (?C?PLDXDATA)
BL51 BANKED LINKER/LOCATER V6.22.2.0                                                  05/15/2021  18:02:00  PAGE 2


  C:\KEIL_V5\C51\LIB\C51L.LIB (?C?PSTXDATA)
  C:\KEIL_V5\C51\LIB\C51L.LIB (?C?PLDPDATA)
  C:\KEIL_V5\C51\LIB\C51L.LIB (?C?PSTPDATA)
  C:\KEIL_V5\C51\LIB\C51L.LIB (?C?PLDCODE)


LINK MAP OF MODULE:  .\Objects\motor_test (?C_STARTUP)


            TYPE    BASE      LENGTH    RELOCATION   SEGMENT NAME
            -----------------------------------------------------

            * * * * * * *   D A T A   M E M O R Y   * * * * * * *
            REG     0000H     0008H     ABSOLUTE     "REG BANK 0"
            IDATA   0008H     0001H     UNIT         ?STACK

            * * * * * * *  X D A T A   M E M O R Y  * * * * * * *
            XDATA   0000H     003CH     UNIT         ?XD?MAIN_FUNC
            XDATA   003CH     001FH     UNIT         ?XD?_FLOOR_UPORDOWN?FLOOR
            XDATA   005BH     001FH     UNIT         ?XD?IRF
            XDATA   007AH     0018H     UNIT         ?XD?FLOOR
            XDATA   0092H     000FH     UNIT         ?XD?IRF_CALLBACKHANDLE?IRF
            XDATA   00A1H     000BH     UNIT         ?XD?IRFAPP_MAIN
            XDATA   00ACH     000BH     UNIT         ?XD?_SOFT_UART_SENDBYTE?SOFT_UART
            XDATA   00B7H     0009H     UNIT         ?XD?IRF_PROC?IRF
            XDATA   00C0H     0008H     UNIT         ?XD?_QUEUE_INIT?QUEUE
            XDATA   00C8H     0008H     UNIT         ?XD?_XOR_CACULATOR?XOR
            XDATA   00D0H     0006H     UNIT         ?XD?_APP_CHECKCOMMANDEXISTANDEXECUTES?IRFAPP_MAIN
            XDATA   00D6H     0006H     UNIT         ?XD?_MOTOR_SETSPEED?MOTOR
            XDATA   00DCH     0006H     UNIT         ?XD?READRESULTCONVERT?ADC
            XDATA   00E2H     0006H     UNIT         ?XD?_QUEUE_PUSH?QUEUE
            XDATA   00E8H     0006H     UNIT         ?XD?_QUEUE_GET?QUEUE
            XDATA   00EEH     0005H     UNIT         ?XD?_APP_DEVICEANNOUNCE?IRFAPP_MAIN
            XDATA   00F3H     0005H     UNIT         ?XD?_APP_CHECKCONNECT?IRFAPP_MAIN
            XDATA   00F8H     0005H     UNIT         ?XD?_APP_STARTRUN?IRFAPP_MAIN
            XDATA   00FDH     0005H     UNIT         ?XD?_APP_STOPRUN?IRFAPP_MAIN
            XDATA   0102H     0005H     UNIT         ?XD?_APP_UPDOWNFLOOR?IRFAPP_MAIN
            XDATA   0107H     0005H     UNIT         ?XD?_APP_GETSTATEMOTOR?IRFAPP_MAIN
            XDATA   010CH     0005H     UNIT         ?XD?_APP_GETSTATEFLOOR?IRFAPP_MAIN
            XDATA   0111H     0005H     UNIT         ?XD?_APP_SETSPEEDMOTOR?IRFAPP_MAIN
            XDATA   0116H     0005H     UNIT         ?XD?_APP_GETALLSTATE?IRFAPP_MAIN
            XDATA   011BH     0005H     UNIT         ?XD?_APP_RESETDEVICE?IRFAPP_MAIN
            XDATA   0120H     0005H     UNIT         ?XD?_UART_SENDDATA?UART
            XDATA   0125H     0004H     UNIT         ?XD?_IRF_SEND?IRF
            XDATA   0129H     0004H     UNIT         ?XD?_MOTOR_SETSTOP?MOTOR
            XDATA   012DH     0004H     UNIT         ?XD?_DELAY_US?DELAY
            XDATA   0131H     0004H     UNIT         ?XD?_PWM_START?PWM
            XDATA   0135H     0004H     UNIT         ?XD?SOFT_UART
            XDATA   0139H     0004H     UNIT         ?XD?_UART_INIT?UART
            XDATA   013DH     0004H     UNIT         ?XD?MODIFY_HIRC166?UART
            XDATA   0141H     0003H     UNIT         ?XD?_PWM_STOP?PWM
            XDATA   0144H     0003H     UNIT         ?XD?_SOFT_UART_SENDDATA?SOFT_UART
            XDATA   0147H     0003H     UNIT         ?XD?_TIMER_INIT?TIMER
            XDATA   014AH     0003H     UNIT         ?XD?_TIMER_CALLBACKINIT?TIMER
            XDATA   014DH     0003H     UNIT         ?XD?TIMER
            XDATA   0150H     0003H     UNIT         ?XD?_UART_CALLBACKINIT?UART
            XDATA   0153H     0003H     UNIT         ?XD?UART
BL51 BANKED LINKER/LOCATER V6.22.2.0                                                  05/15/2021  18:02:00  PAGE 3


            XDATA   0156H     0003H     UNIT         ?XD?_QUEUE_EMPTY?QUEUE
            XDATA   0159H     0003H     UNIT         ?XD?_QUEUE_COUNT?QUEUE
            XDATA   015CH     0002H     UNIT         ?XD?FUNCHANDLE_SETSPEEDMOTORFLAG?MAIN_FUNC
            XDATA   015EH     0002H     UNIT         ?XD?GET_ADC_LEVELS?FLOOR
            XDATA   0160H     0002H     UNIT         ?XD?_MOTOR_INIT?MOTOR
            XDATA   0162H     0002H     UNIT         ?XD?MOTOR
            XDATA   0164H     0002H     UNIT         ?XD?_DELAY_MS?DELAY
            XDATA   0166H     0002H     UNIT         ?XD?_PWM_SETDUTY?PWM
            XDATA   0168H     0002H     UNIT         ?XD?_SOFT_UART_INIT?SOFT_UART
            XDATA   016AH     0002H     UNIT         ?XD?_UART_SENDBYTE?UART
            XDATA   016CH     0001H     UNIT         ?XD?_RELAY_AC?RELAY
            XDATA   016DH     0001H     UNIT         ?XD?_TIMER_ENABLE?TIMER
            XDATA   016EH     0001H     UNIT         ?XD?_TIMER_DISABLE?TIMER
            XDATA   016FH     0001H     UNIT         ?XD?UART_REVDATA?UART

            * * * * * * *   C O D E   M E M O R Y   * * * * * * *
            CODE    0000H     0003H     ABSOLUTE     
            CODE    0003H     0006H     UNIT         ?PR?FUNCHANDLE_UPDOWNFLOORFLAG?MAIN_FUNC
            CODE    0009H     0001H     UNIT         ?PR?FUNCHANDLE_CURRENTDUTY?MAIN_FUNC
            CODE    000AH     0001H     UNIT         ?PR?FUNCHANDLE_DEVICEANNOUNCEFLAG?MAIN_FUNC
            CODE    000BH     0003H     ABSOLUTE     
            CODE    000EH     0013H     UNIT         ?PR?MAIN_INIT?MAIN_INIT
                    0021H     0002H                  *** GAP ***
            CODE    0023H     0003H     ABSOLUTE     
            CODE    0026H     0565H     UNIT         ?C?LIB_CODE
            CODE    058BH     024EH     UNIT         ?PR?_FLOOR_UPORDOWN?FLOOR
            CODE    07D9H     01F1H     UNIT         ?PR?_QUEUE_PUSH?QUEUE
            CODE    09CAH     016CH     UNIT         ?PR?_APP_CHECKCOMMANDEXISTANDEXECUTES?IRFAPP_MAIN
            CODE    0B36H     0132H     UNIT         ?PR?_QUEUE_GET?QUEUE
            CODE    0C68H     0111H     UNIT         ?PR?FUNCHANDLE_ALLFLAG?MAIN_FUNC
            CODE    0D79H     0107H     UNIT         ?PR?_SOFT_UART_SENDBYTE?SOFT_UART
            CODE    0E80H     00EBH     UNIT         ?PR?_MOTOR_SETSPEED?MOTOR
            CODE    0F6BH     00E0H     UNIT         ?PR?IRF_CALLBACKHANDLE?IRF
            CODE    104BH     00A4H     UNIT         ?PR?_QUEUE_INIT?QUEUE
            CODE    10EFH     009EH     UNIT         ?PR?_UART_INIT?UART
            CODE    118DH     0094H     UNIT         ?PR?MODIFY_HIRC166?UART
            CODE    1221H     0093H     UNIT         ?C_INITSEG
            CODE    12B4H     008CH     UNIT         ?C_C51STARTUP
            CODE    1340H     0081H     UNIT         ?PR?GET_ADC_LEVELS?FLOOR
            CODE    13C1H     007AH     UNIT         ?PR?SERIALPORT0_ISR?UART
            CODE    143BH     0070H     UNIT         ?PR?TIMER0OVERFLOW_ISR?TIMER
            CODE    14ABH     006EH     UNIT         ?PR?_XOR_CACULATOR?XOR
            CODE    1519H     006BH     UNIT         ?PR?READRESULTCONVERT?ADC
            CODE    1584H     0060H     UNIT         ?PR?FUNCHANDLE_GETALLSTATEFLAG?MAIN_FUNC
            CODE    15E4H     0054H     UNIT         ?PR?_MOTOR_SETSTOP?MOTOR
            CODE    1638H     0050H     UNIT         ?PR?IRF_PROC?IRF
            CODE    1688H     004CH     UNIT         ?PR?_PWM_START?PWM
            CODE    16D4H     004AH     UNIT         ?PR?IRF_INIT?IRF
            CODE    171EH     0049H     UNIT         ?PR?_UART_SENDDATA?UART
            CODE    1767H     0040H     UNIT         ?PR?_PWM_STOP?PWM
            CODE    17A7H     003DH     UNIT         ?PR?_DELAY_US?DELAY
            CODE    17E4H     0038H     UNIT         ?PR?_TIMER_INIT?TIMER
            CODE    181CH     0035H     UNIT         ?PR?TICK_COUNT?SOFT_UART
            CODE    1851H     0035H     UNIT         ?PR?_SOFT_UART_INIT?SOFT_UART
            CODE    1886H     0033H     UNIT         ?PR?FUNCHANDLE_SETSPEEDMOTORFLAG?MAIN_FUNC
            CODE    18B9H     002CH     UNIT         ?PR?_DELAY_MS?DELAY
            CODE    18E5H     002CH     UNIT         ?PR?_PWM_SETDUTY?PWM
BL51 BANKED LINKER/LOCATER V6.22.2.0                                                  05/15/2021  18:02:00  PAGE 4


            CODE    1911H     002CH     UNIT         ?PR?_TIMER_ENABLE?TIMER
            CODE    193DH     002CH     UNIT         ?PR?_TIMER_DISABLE?TIMER
            CODE    1969H     002BH     UNIT         ?PR?_APP_SETSPEEDMOTOR?IRFAPP_MAIN
            CODE    1994H     0029H     UNIT         ?PR?_QUEUE_EMPTY?QUEUE
            CODE    19BDH     0024H     UNIT         ?PR?_IRF_SEND?IRF
            CODE    19E1H     0024H     UNIT         ?PR?PWM_INIT?PWM
            CODE    1A05H     0022H     UNIT         ?PR?_TIMER_CALLBACKINIT?TIMER
            CODE    1A27H     0022H     UNIT         ?PR?_UART_CALLBACKINIT?UART
            CODE    1A49H     0021H     UNIT         ?PR?_QUEUE_COUNT?QUEUE
            CODE    1A6AH     0020H     UNIT         ?PR?_UART_SENDBYTE?UART
            CODE    1A8AH     001FH     UNIT         ?PR?FUNCHANDLE_STARTRUNFLAG?MAIN_FUNC
            CODE    1AA9H     001CH     UNIT         ?PR?RELAY_CONFIG?RELAY
            CODE    1AC5H     001AH     UNIT         ?PR?_RELAY_AC?RELAY
            CODE    1ADFH     0018H     UNIT         ?CO?FLOOR
            CODE    1AF7H     0017H     UNIT         ?PR?_APP_DEVICEANNOUNCE?IRFAPP_MAIN
            CODE    1B0EH     0017H     UNIT         ?PR?_APP_CHECKCONNECT?IRFAPP_MAIN
            CODE    1B25H     0017H     UNIT         ?PR?_APP_STARTRUN?IRFAPP_MAIN
            CODE    1B3CH     0017H     UNIT         ?PR?_APP_STOPRUN?IRFAPP_MAIN
            CODE    1B53H     0017H     UNIT         ?PR?_APP_UPDOWNFLOOR?IRFAPP_MAIN
            CODE    1B6AH     0017H     UNIT         ?PR?_APP_GETSTATEMOTOR?IRFAPP_MAIN
            CODE    1B81H     0017H     UNIT         ?PR?_APP_GETSTATEFLOOR?IRFAPP_MAIN
            CODE    1B98H     0017H     UNIT         ?PR?_APP_GETALLSTATE?IRFAPP_MAIN
            CODE    1BAFH     0017H     UNIT         ?PR?_APP_RESETDEVICE?IRFAPP_MAIN
            CODE    1BC6H     0017H     UNIT         ?PR?FUNCHANDLE_CHECKCONNECTFLAG?MAIN_FUNC
            CODE    1BDDH     0017H     UNIT         ?PR?_MOTOR_INIT?MOTOR
            CODE    1BF4H     0017H     UNIT         ?PR?GPIO_SOFT_UART_INIT?GPIO
            CODE    1C0BH     0016H     UNIT         ?PR?FUNCHANDLE_STOPRUNFLAG?MAIN_FUNC
            CODE    1C21H     0013H     UNIT         ?PR?MOTOR_GETCURRENTSPEED?MOTOR
            CODE    1C34H     0012H     UNIT         ?PR?INIT_ADC?ADC
            CODE    1C46H     0011H     UNIT         ?PR?FUNCHANDLE_GETSTATEMOTORFLAG?MAIN_FUNC
            CODE    1C57H     000FH     UNIT         ?PR?HANDLE_TICK?SOFT_UART
            CODE    1C66H     000EH     UNIT         ?PR?MOTOR_CONFIG?MOTOR
            CODE    1C74H     000CH     UNIT         ?PR?MAIN?MAIN
            CODE    1C80H     000CH     UNIT         ?PR?SOFT_UART_PININIT?SOFT_UART
            CODE    1C8CH     000CH     UNIT         ?PR?_SOFT_UART_SENDDATA?SOFT_UART
            CODE    1C98H     000CH     UNIT         ?PR?UART_REVDATA?UART
            CODE    1CA4H     0009H     UNIT         ?PR?ENABLE_ADC?ADC
            CODE    1CADH     0006H     UNIT         ?PR?FUNCHANDLE_GETSTATEFLOORFLAG?MAIN_FUNC
            CODE    1CB3H     0006H     UNIT         ?PR?FUNCHANDLE_RESETDEVICEFLAG?MAIN_FUNC
            CODE    1CB9H     0004H     UNIT         ?PR?MAIN_PROC?MAIN_INIT
            CODE    1CBDH     0004H     UNIT         ?PR?RELAY_UP?RELAY
            CODE    1CC1H     0004H     UNIT         ?PR?RELAY_UPRESET?RELAY
            CODE    1CC5H     0004H     UNIT         ?PR?RELAY_DOWN?RELAY
            CODE    1CC9H     0004H     UNIT         ?PR?RELAY_DOWNRESET?RELAY
            CODE    1CCDH     0003H     UNIT         ?CO?IRF
            CODE    1CD0H     0003H     UNIT         ?PR?UART_ENABLE?UART
            CODE    1CD3H     0003H     UNIT         ?PR?UART_DISABLE?UART



OVERLAY MAP OF MODULE:   .\Objects\motor_test (?C_STARTUP)


SEGMENT
  +--> CALLED SEGMENT
---------------------
?C_C51STARTUP
BL51 BANKED LINKER/LOCATER V6.22.2.0                                                  05/15/2021  18:02:00  PAGE 5


  +--> ?PR?MAIN?MAIN
  +--> ?C_INITSEG

?PR?MAIN?MAIN
  +--> ?PR?MAIN_INIT?MAIN_INIT
  +--> ?PR?IRF_PROC?IRF
  +--> ?PR?FUNCHANDLE_ALLFLAG?MAIN_FUNC

?PR?MAIN_INIT?MAIN_INIT
  +--> ?PR?MOTOR_CONFIG?MOTOR
  +--> ?PR?RELAY_CONFIG?RELAY
  +--> ?PR?_MOTOR_INIT?MOTOR
  +--> ?PR?IRF_INIT?IRF

?PR?MOTOR_CONFIG?MOTOR
  +--> ?PR?_DELAY_MS?DELAY

?PR?_DELAY_MS?DELAY
  +--> ?PR?_DELAY_US?DELAY

?PR?_MOTOR_INIT?MOTOR
  +--> ?PR?PWM_INIT?PWM
  +--> ?PR?_PWM_SETDUTY?PWM

?PR?IRF_INIT?IRF
  +--> ?PR?_UART_INIT?UART
  +--> ?PR?IRF_CALLBACKHANDLE?IRF
  +--> ?PR?_UART_CALLBACKINIT?UART
  +--> ?PR?_QUEUE_INIT?QUEUE
  +--> ?PR?UART_ENABLE?UART

?PR?_UART_INIT?UART
  +--> ?PR?UART_DISABLE?UART

?PR?IRF_CALLBACKHANDLE?IRF
  +--> ?PR?UART_REVDATA?UART
  +--> ?PR?_XOR_CACULATOR?XOR
  +--> ?PR?_QUEUE_PUSH?QUEUE
  +--> ?CO?IRF
  +--> ?PR?_UART_SENDDATA?UART

?PR?_QUEUE_PUSH?QUEUE
  +--> ?PR?_QUEUE_COUNT?QUEUE

?PR?_UART_SENDDATA?UART
  +--> ?PR?_UART_SENDBYTE?UART

?PR?IRF_PROC?IRF
  +--> ?PR?_QUEUE_EMPTY?QUEUE
  +--> ?PR?_QUEUE_GET?QUEUE
  +--> ?PR?_APP_CHECKCOMMANDEXISTANDEXECUTES...

?PR?_QUEUE_GET?QUEUE
  +--> ?PR?_QUEUE_COUNT?QUEUE

?PR?_APP_CHECKCOMMANDEXISTANDEXECUTES...
  +--> ?PR?_APP_DEVICEANNOUNCE?IRFAPP_MAIN
BL51 BANKED LINKER/LOCATER V6.22.2.0                                                  05/15/2021  18:02:00  PAGE 6


  +--> ?PR?_APP_CHECKCONNECT?IRFAPP_MAIN
  +--> ?PR?_APP_STARTRUN?IRFAPP_MAIN
  +--> ?PR?_APP_STOPRUN?IRFAPP_MAIN
  +--> ?PR?_APP_UPDOWNFLOOR?IRFAPP_MAIN
  +--> ?PR?_APP_GETSTATEMOTOR?IRFAPP_MAIN
  +--> ?PR?_APP_GETSTATEFLOOR?IRFAPP_MAIN
  +--> ?PR?_APP_SETSPEEDMOTOR?IRFAPP_MAIN
  +--> ?PR?_APP_GETALLSTATE?IRFAPP_MAIN
  +--> ?PR?_APP_RESETDEVICE?IRFAPP_MAIN

?PR?FUNCHANDLE_ALLFLAG?MAIN_FUNC
  +--> ?PR?FUNCHANDLE_DEVICEANNOUNCEFLAG?MAI...
  +--> ?PR?FUNCHANDLE_CHECKCONNECTFLAG?MAIN_...
  +--> ?PR?FUNCHANDLE_STARTRUNFLAG?MAIN_FUNC
  +--> ?PR?FUNCHANDLE_STOPRUNFLAG?MAIN_FUNC
  +--> ?PR?FUNCHANDLE_UPDOWNFLOORFLAG?MAIN_FUNC
  +--> ?PR?FUNCHANDLE_GETSTATEMOTORFLAG?MAIN...
  +--> ?PR?FUNCHANDLE_GETSTATEFLOORFLAG?MAIN...
  +--> ?PR?FUNCHANDLE_SETSPEEDMOTORFLAG?MAIN...
  +--> ?PR?FUNCHANDLE_GETALLSTATEFLAG?MAIN_FUNC

?PR?FUNCHANDLE_CHECKCONNECTFLAG?MAIN_...
  +--> ?PR?_IRF_SEND?IRF

?PR?_IRF_SEND?IRF
  +--> ?PR?_UART_SENDDATA?UART

?PR?FUNCHANDLE_STARTRUNFLAG?MAIN_FUNC
  +--> ?PR?_RELAY_AC?RELAY
  +--> ?PR?_MOTOR_SETSPEED?MOTOR

?PR?_MOTOR_SETSPEED?MOTOR
  +--> ?PR?_PWM_SETDUTY?PWM
  +--> ?PR?_DELAY_MS?DELAY

?PR?FUNCHANDLE_STOPRUNFLAG?MAIN_FUNC
  +--> ?PR?_MOTOR_SETSTOP?MOTOR
  +--> ?PR?_RELAY_AC?RELAY

?PR?_MOTOR_SETSTOP?MOTOR
  +--> ?PR?_PWM_SETDUTY?PWM
  +--> ?PR?_DELAY_MS?DELAY

?PR?FUNCHANDLE_GETSTATEMOTORFLAG?MAIN...
  +--> ?PR?_IRF_SEND?IRF

?PR?FUNCHANDLE_SETSPEEDMOTORFLAG?MAIN...
  +--> ?PR?_MOTOR_SETSPEED?MOTOR
  +--> ?PR?MOTOR_GETCURRENTSPEED?MOTOR

?PR?FUNCHANDLE_GETALLSTATEFLAG?MAIN_FUNC
  +--> ?PR?_XOR_CACULATOR?XOR
  +--> ?PR?_IRF_SEND?IRF



UNRESOLVED EXTERNAL SYMBOLS:
BL51 BANKED LINKER/LOCATER V6.22.2.0                                                  05/15/2021  18:02:00  PAGE 7


   BOTLIMITFLOOR
   TOPLIMITFLOOR



SYMBOL TABLE OF MODULE:  .\Objects\motor_test (?C_STARTUP)

  VALUE           TYPE          NAME
  ----------------------------------

  -------         MODULE        ?C_STARTUP
  C:12B4H         SEGMENT       ?C_C51STARTUP
  I:0008H         SEGMENT       ?STACK
  C:0000H         PUBLIC        ?C_STARTUP
  D:00E0H         SYMBOL        ACC
  D:00F0H         SYMBOL        B
  D:0083H         SYMBOL        DPH
  D:0082H         SYMBOL        DPL
  N:0000H         SYMBOL        IBPSTACK
  N:0100H         SYMBOL        IBPSTACKTOP
  N:0080H         SYMBOL        IDATALEN
  C:12B7H         SYMBOL        IDATALOOP
  N:0000H         SYMBOL        PBPSTACK
  N:0100H         SYMBOL        PBPSTACKTOP
  N:0000H         SYMBOL        PDATALEN
  N:0000H         SYMBOL        PDATASTART
  N:0000H         SYMBOL        PPAGE
  N:0000H         SYMBOL        PPAGEENABLE
  D:00A0H         SYMBOL        PPAGE_SFR
  D:0081H         SYMBOL        SP
  C:12B4H         SYMBOL        STARTUP1
  N:0000H         SYMBOL        XBPSTACK
  N:0000H         SYMBOL        XBPSTACKTOP
  N:0000H         SYMBOL        XDATALEN
  N:0000H         SYMBOL        XDATASTART
  C:0000H         LINE#         126
  C:12B4H         LINE#         133
  C:12B6H         LINE#         134
  C:12B7H         LINE#         135
  C:12B8H         LINE#         136
  C:12BAH         LINE#         185
  C:12BDH         LINE#         196
  -------         ENDMOD        ?C_STARTUP

  -------         MODULE        MAIN
  C:0000H         SYMBOL        _ICE_DUMMY_
  D:0080H         PUBLIC        P0
  D:0090H         PUBLIC        P1
  D:00A0H         PUBLIC        P2
  D:00B0H         PUBLIC        P3
  D:00D8H         PUBLIC        PWMCON0
  D:00A8H         PUBLIC        IE
  D:00B8H         PUBLIC        IP
  C:1C74H         PUBLIC        main
  D:0098H         PUBLIC        SCON
  D:0088H         PUBLIC        TCON
  D:00F8H         PUBLIC        SCON_1
BL51 BANKED LINKER/LOCATER V6.22.2.0                                                  05/15/2021  18:02:00  PAGE 8


  D:00E8H         PUBLIC        ADCCON0
  D:00C0H         PUBLIC        I2CON
  D:00C8H         PUBLIC        T2CON
  D:00D0H         PUBLIC        PSW
  -------         PROC          MAIN
  C:1C74H         LINE#         34
  C:1C74H         LINE#         35
  C:1C74H         LINE#         36
  C:1C77H         LINE#         37
  C:1C77H         LINE#         38
  C:1C77H         LINE#         39
  C:1C7AH         LINE#         40
  C:1C7DH         LINE#         41
  -------         ENDPROC       MAIN
  -------         ENDMOD        MAIN

  -------         MODULE        IRFAPP_MAIN
  C:0000H         SYMBOL        _ICE_DUMMY_
  D:0080H         PUBLIC        P0
  D:0090H         PUBLIC        P1
  D:00A0H         PUBLIC        P2
  D:00B0H         PUBLIC        P3
  C:1B98H         SYMBOL        _APP_GetAllState
  D:00D8H         PUBLIC        PWMCON0
  C:1B25H         SYMBOL        _APP_StartRun
  D:00A8H         PUBLIC        IE
  X:00A1H         PUBLIC        speedValue
  D:00B8H         PUBLIC        IP
  C:1BAFH         SYMBOL        _APP_ResetDevice
  C:1B3CH         SYMBOL        _APP_StopRun
  X:00A2H         PUBLIC        updownFloorFlag
  C:1B53H         SYMBOL        _APP_UpDownFloor
  X:00A3H         PUBLIC        deviceAnnounceFlag
  D:0098H         PUBLIC        SCON
  D:0088H         PUBLIC        TCON
  D:00F8H         PUBLIC        SCON_1
  X:00A4H         PUBLIC        getStateFloorFlag
  X:00A5H         PUBLIC        checkConnectFlag
  C:1AF7H         SYMBOL        _APP_DeviceAnnounce
  X:00A6H         PUBLIC        setSpeedMotorFlag
  X:00A7H         PUBLIC        getStateMotorFlag
  C:09CAH         PUBLIC        _APP_CheckCommandExistAndExecutes
  D:00E8H         PUBLIC        ADCCON0
  D:00C0H         PUBLIC        I2CON
  X:00A8H         PUBLIC        getAllStateFlag
  X:00A9H         PUBLIC        startRunFlag
  D:00C8H         PUBLIC        T2CON
  C:1B81H         SYMBOL        _APP_GetStateFloor
  C:1B0EH         SYMBOL        _APP_CheckConnect
  X:00AAH         PUBLIC        resetDeviceFlag
  C:1969H         SYMBOL        _APP_SetSpeedMotor
  D:00D0H         PUBLIC        PSW
  X:00ABH         PUBLIC        stopRunFlag
  C:1B6AH         SYMBOL        _APP_GetStateMotor
  -------         PROC          _APP_CHECKCOMMANDEXISTANDEXECUTES
  X:00D0H         SYMBOL        command
  X:00D1H         SYMBOL        type
BL51 BANKED LINKER/LOCATER V6.22.2.0                                                  05/15/2021  18:02:00  PAGE 9


  X:00D2H         SYMBOL        buff
  X:00D5H         SYMBOL        length
  C:09CAH         LINE#         56
  C:09DFH         LINE#         57
  C:09DFH         LINE#         58
  C:0A0AH         LINE#         59
  C:0A0AH         LINE#         60
  C:0A0AH         LINE#         61
  C:0A27H         LINE#         62
  C:0A28H         LINE#         63
  C:0A28H         LINE#         64
  C:0A45H         LINE#         65
  C:0A46H         LINE#         66
  C:0A46H         LINE#         67
  C:0A63H         LINE#         68
  C:0A64H         LINE#         69
  C:0A64H         LINE#         70
  C:0A81H         LINE#         71
  C:0A82H         LINE#         72
  C:0A82H         LINE#         73
  C:0A9FH         LINE#         74
  C:0AA0H         LINE#         75
  C:0AA0H         LINE#         76
  C:0ABDH         LINE#         77
  C:0ABEH         LINE#         78
  C:0ABEH         LINE#         79
  C:0ADBH         LINE#         80
  C:0ADCH         LINE#         81
  C:0ADCH         LINE#         82
  C:0AF9H         LINE#         83
  C:0AFAH         LINE#         84
  C:0AFAH         LINE#         85
  C:0B17H         LINE#         86
  C:0B18H         LINE#         87
  C:0B18H         LINE#         88
  C:0B35H         LINE#         89
  C:0B35H         LINE#         90
  C:0B35H         LINE#         91
  C:0B35H         LINE#         92
  C:0B35H         LINE#         93
  -------         ENDPROC       _APP_CHECKCOMMANDEXISTANDEXECUTES
  -------         PROC          _APP_DEVICEANNOUNCE
  X:00EEH         SYMBOL        type
  X:00EFH         SYMBOL        buff
  X:00F2H         SYMBOL        length
  C:1AF7H         LINE#         102
  C:1B07H         LINE#         103
  C:1B07H         LINE#         104
  C:1B0DH         LINE#         105
  -------         ENDPROC       _APP_DEVICEANNOUNCE
  -------         PROC          _APP_CHECKCONNECT
  X:00F3H         SYMBOL        type
  X:00F4H         SYMBOL        buff
  X:00F7H         SYMBOL        length
  C:1B0EH         LINE#         113
  C:1B1EH         LINE#         114
  C:1B1EH         LINE#         115
BL51 BANKED LINKER/LOCATER V6.22.2.0                                                  05/15/2021  18:02:00  PAGE 10


  C:1B24H         LINE#         116
  -------         ENDPROC       _APP_CHECKCONNECT
  -------         PROC          _APP_STARTRUN
  X:00F8H         SYMBOL        type
  X:00F9H         SYMBOL        buff
  X:00FCH         SYMBOL        length
  C:1B25H         LINE#         124
  C:1B35H         LINE#         125
  C:1B35H         LINE#         126
  C:1B3BH         LINE#         127
  -------         ENDPROC       _APP_STARTRUN
  -------         PROC          _APP_STOPRUN
  X:00FDH         SYMBOL        type
  X:00FEH         SYMBOL        buff
  X:0101H         SYMBOL        length
  C:1B3CH         LINE#         135
  C:1B4CH         LINE#         136
  C:1B4CH         LINE#         137
  C:1B52H         LINE#         138
  -------         ENDPROC       _APP_STOPRUN
  -------         PROC          _APP_UPDOWNFLOOR
  X:0102H         SYMBOL        type
  X:0103H         SYMBOL        buff
  X:0106H         SYMBOL        length
  C:1B53H         LINE#         146
  C:1B63H         LINE#         147
  C:1B63H         LINE#         148
  C:1B69H         LINE#         149
  -------         ENDPROC       _APP_UPDOWNFLOOR
  -------         PROC          _APP_GETSTATEMOTOR
  X:0107H         SYMBOL        type
  X:0108H         SYMBOL        buff
  X:010BH         SYMBOL        length
  C:1B6AH         LINE#         157
  C:1B7AH         LINE#         158
  C:1B7AH         LINE#         159
  C:1B80H         LINE#         161
  -------         ENDPROC       _APP_GETSTATEMOTOR
  -------         PROC          _APP_GETSTATEFLOOR
  X:010CH         SYMBOL        type
  X:010DH         SYMBOL        buff
  X:0110H         SYMBOL        length
  C:1B81H         LINE#         169
  C:1B91H         LINE#         170
  C:1B91H         LINE#         171
  C:1B97H         LINE#         172
  -------         ENDPROC       _APP_GETSTATEFLOOR
  -------         PROC          _APP_SETSPEEDMOTOR
  X:0111H         SYMBOL        type
  X:0112H         SYMBOL        buff
  X:0115H         SYMBOL        length
  C:1969H         LINE#         180
  C:1979H         LINE#         181
  C:1979H         LINE#         182
  C:197FH         LINE#         183
  C:1993H         LINE#         184
  -------         ENDPROC       _APP_SETSPEEDMOTOR
BL51 BANKED LINKER/LOCATER V6.22.2.0                                                  05/15/2021  18:02:00  PAGE 11


  -------         PROC          _APP_GETALLSTATE
  X:0116H         SYMBOL        type
  X:0117H         SYMBOL        buff
  X:011AH         SYMBOL        length
  C:1B98H         LINE#         192
  C:1BA8H         LINE#         193
  C:1BA8H         LINE#         194
  C:1BAEH         LINE#         195
  -------         ENDPROC       _APP_GETALLSTATE
  -------         PROC          _APP_RESETDEVICE
  X:011BH         SYMBOL        type
  X:011CH         SYMBOL        buff
  X:011FH         SYMBOL        length
  C:1BAFH         LINE#         203
  C:1BBFH         LINE#         204
  C:1BBFH         LINE#         205
  C:1BC5H         LINE#         206
  -------         ENDPROC       _APP_RESETDEVICE
  -------         ENDMOD        IRFAPP_MAIN

  -------         MODULE        MAIN_FUNC
  C:0000H         SYMBOL        _ICE_DUMMY_
  X:0000H         PUBLIC        stopRun
  D:0080H         PUBLIC        P0
  D:0090H         PUBLIC        P1
  D:00A0H         PUBLIC        P2
  D:00B0H         PUBLIC        P3
  D:00D8H         PUBLIC        PWMCON0
  C:1CADH         PUBLIC        funcHandle_GetStateFloorFlag
  C:1BC6H         PUBLIC        funcHandle_CheckConnectFlag
  D:00A8H         PUBLIC        IE
  C:1886H         PUBLIC        funcHandle_SetSpeedMotorFlag
  C:1C46H         PUBLIC        funcHandle_GetStateMotorFlag
  D:00B8H         PUBLIC        IP
  C:1584H         PUBLIC        funcHandle_GetAllStateFlag
  C:1A8AH         PUBLIC        funcHandle_StartRunFlag
  X:0006H         PUBLIC        stateFloorFlag
  X:0007H         PUBLIC        updownFloor
  X:000DH         PUBLIC        currentDuty
  D:0098H         PUBLIC        SCON
  D:0088H         PUBLIC        TCON
  X:000FH         PUBLIC        stateMotorFlag
  C:1CB3H         PUBLIC        funcHandle_ResetDeviceFlag
  C:1C0BH         PUBLIC        funcHandle_StopRunFlag
  D:00F8H         PUBLIC        SCON_1
  X:0010H         PUBLIC        getStateFloor
  X:0016H         PUBLIC        checkConnect
  X:001CH         PUBLIC        setSpeedMotor
  D:00E8H         PUBLIC        ADCCON0
  X:0022H         PUBLIC        getStateMotor
  D:00C0H         PUBLIC        I2CON
  X:0028H         PUBLIC        getAllState
  C:0003H         PUBLIC        funcHandle_UpdownFloorFlag
  D:00C8H         PUBLIC        T2CON
  X:002FH         PUBLIC        startRun
  C:000AH         PUBLIC        funcHandle_DeviceAnnounceFlag
  C:0009H         PUBLIC        funcHandle_CurrentDuty
BL51 BANKED LINKER/LOCATER V6.22.2.0                                                  05/15/2021  18:02:00  PAGE 12


  X:0035H         PUBLIC        stateConnectFlag
  C:0C68H         PUBLIC        funcHandle_AllFlag
  X:0036H         PUBLIC        resetDevice
  D:00D0H         PUBLIC        PSW
  -------         PROC          FUNCHANDLE_CURRENTDUTY
  C:0009H         LINE#         59
  C:0009H         LINE#         60
  C:0009H         LINE#         62
  -------         ENDPROC       FUNCHANDLE_CURRENTDUTY
  -------         PROC          FUNCHANDLE_ALLFLAG
  C:0C68H         LINE#         64
  C:0C68H         LINE#         65
  C:0C68H         LINE#         66
  C:0CE0H         LINE#         69
  C:0CE0H         LINE#         70
  C:0CEDH         LINE#         71
  C:0CEDH         LINE#         72
  C:0CF0H         LINE#         74
  C:0CFEH         LINE#         75
  C:0CFEH         LINE#         76
  C:0D01H         LINE#         78
  C:0D0FH         LINE#         79
  C:0D0FH         LINE#         80
  C:0D12H         LINE#         82
  C:0D20H         LINE#         83
  C:0D20H         LINE#         84
  C:0D23H         LINE#         86
  C:0D31H         LINE#         87
  C:0D31H         LINE#         88
  C:0D34H         LINE#         90
  C:0D42H         LINE#         91
  C:0D42H         LINE#         92
  C:0D45H         LINE#         94
  C:0D53H         LINE#         95
  C:0D53H         LINE#         96
  C:0D56H         LINE#         98
  C:0D64H         LINE#         99
  C:0D64H         LINE#         100
  C:0D67H         LINE#         102
  C:0D75H         LINE#         103
  C:0D75H         LINE#         104
  C:0D78H         LINE#         106
  C:0D78H         LINE#         107
  C:0D78H         LINE#         108
  -------         ENDPROC       FUNCHANDLE_ALLFLAG
  -------         PROC          FUNCHANDLE_DEVICEANNOUNCEFLAG
  C:000AH         LINE#         115
  C:000AH         LINE#         116
  C:000AH         LINE#         118
  -------         ENDPROC       FUNCHANDLE_DEVICEANNOUNCEFLAG
  -------         PROC          FUNCHANDLE_CHECKCONNECTFLAG
  C:1BC6H         LINE#         125
  C:1BC6H         LINE#         126
  C:1BC6H         LINE#         127
  C:1BCBH         LINE#         128
  C:1BD6H         LINE#         129
  C:1BDCH         LINE#         131
BL51 BANKED LINKER/LOCATER V6.22.2.0                                                  05/15/2021  18:02:00  PAGE 13


  -------         ENDPROC       FUNCHANDLE_CHECKCONNECTFLAG
  -------         PROC          FUNCHANDLE_STARTRUNFLAG
  C:1A8AH         LINE#         138
  C:1A8AH         LINE#         139
  C:1A8AH         LINE#         140
  C:1A8FH         LINE#         142
  C:1A94H         LINE#         143
  C:1A9FH         LINE#         144
  C:1AA8H         LINE#         145
  -------         ENDPROC       FUNCHANDLE_STARTRUNFLAG
  -------         PROC          FUNCHANDLE_STOPRUNFLAG
  C:1C0BH         LINE#         152
  C:1C0BH         LINE#         153
  C:1C0BH         LINE#         154
  C:1C10H         LINE#         156
  C:1C1BH         LINE#         157
  C:1C20H         LINE#         158
  -------         ENDPROC       FUNCHANDLE_STOPRUNFLAG
  -------         PROC          FUNCHANDLE_UPDOWNFLOORFLAG
  C:0003H         LINE#         165
  C:0003H         LINE#         166
  C:0003H         LINE#         167
  C:0008H         LINE#         169
  -------         ENDPROC       FUNCHANDLE_UPDOWNFLOORFLAG
  -------         PROC          FUNCHANDLE_GETSTATEMOTORFLAG
  C:1C46H         LINE#         177
  C:1C46H         LINE#         178
  C:1C46H         LINE#         179
  C:1C4BH         LINE#         180
  C:1C56H         LINE#         181
  -------         ENDPROC       FUNCHANDLE_GETSTATEMOTORFLAG
  -------         PROC          FUNCHANDLE_GETSTATEFLOORFLAG
  C:1CADH         LINE#         188
  C:1CADH         LINE#         189
  C:1CADH         LINE#         190
  C:1CB2H         LINE#         191
  C:1CB2H         LINE#         192
  -------         ENDPROC       FUNCHANDLE_GETSTATEFLOORFLAG
  -------         PROC          FUNCHANDLE_SETSPEEDMOTORFLAG
  -------         DO            
  X:015CH         SYMBOL        desireDuty
  -------         ENDDO         
  C:1886H         LINE#         200
  C:1886H         LINE#         201
  C:1886H         LINE#         203
  C:188BH         LINE#         205
  C:189AH         LINE#         206
  C:18ADH         LINE#         207
  C:18B8H         LINE#         208
  -------         ENDPROC       FUNCHANDLE_SETSPEEDMOTORFLAG
  -------         PROC          FUNCHANDLE_GETALLSTATEFLAG
  C:1584H         LINE#         216
  C:1584H         LINE#         217
  C:1584H         LINE#         218
  C:1589H         LINE#         220
  C:1596H         LINE#         221
  C:1596H         LINE#         222
BL51 BANKED LINKER/LOCATER V6.22.2.0                                                  05/15/2021  18:02:00  PAGE 14


  C:159CH         LINE#         223
  C:159EH         LINE#         224
  C:159EH         LINE#         225
  C:15A4H         LINE#         226
  C:15A4H         LINE#         227
  C:15B1H         LINE#         228
  C:15B1H         LINE#         229
  C:15B7H         LINE#         230
  C:15B9H         LINE#         231
  C:15B9H         LINE#         232
  C:15BFH         LINE#         233
  C:15BFH         LINE#         234
  C:15D8H         LINE#         235
  C:15E3H         LINE#         236
  -------         ENDPROC       FUNCHANDLE_GETALLSTATEFLAG
  -------         PROC          FUNCHANDLE_RESETDEVICEFLAG
  C:1CB3H         LINE#         244
  C:1CB3H         LINE#         245
  C:1CB3H         LINE#         246
  C:1CB8H         LINE#         249
  -------         ENDPROC       FUNCHANDLE_RESETDEVICEFLAG
  -------         ENDMOD        MAIN_FUNC

  -------         MODULE        MAIN_INIT
  C:0000H         SYMBOL        _ICE_DUMMY_
  D:0080H         PUBLIC        P0
  D:0090H         PUBLIC        P1
  D:00A0H         PUBLIC        P2
  D:00B0H         PUBLIC        P3
  B:00A8H.7       PUBLIC        EA
  D:00D8H         PUBLIC        PWMCON0
  D:00A8H         PUBLIC        IE
  D:00B8H         PUBLIC        IP
  C:1CB9H         PUBLIC        MAIN_Proc
  C:000EH         PUBLIC        MAIN_Init
  D:0098H         PUBLIC        SCON
  D:0088H         PUBLIC        TCON
  D:00F8H         PUBLIC        SCON_1
  D:00E8H         PUBLIC        ADCCON0
  D:00C0H         PUBLIC        I2CON
  D:00C8H         PUBLIC        T2CON
  D:00D0H         PUBLIC        PSW
  -------         PROC          MAIN_INIT
  C:000EH         LINE#         30
  C:000EH         LINE#         31
  C:000EH         LINE#         32
  C:0011H         LINE#         33
  C:0014H         LINE#         34
  C:001BH         LINE#         37
  C:001EH         LINE#         38
  C:0020H         LINE#         39
  -------         ENDPROC       MAIN_INIT
  -------         PROC          MAIN_PROC
  C:1CB9H         LINE#         46
  C:1CB9H         LINE#         47
  C:1CB9H         LINE#         48
  C:1CBCH         LINE#         49
BL51 BANKED LINKER/LOCATER V6.22.2.0                                                  05/15/2021  18:02:00  PAGE 15


  -------         ENDPROC       MAIN_PROC
  -------         ENDMOD        MAIN_INIT

  -------         MODULE        FLOOR
  C:0000H         SYMBOL        _ICE_DUMMY_
  D:0080H         PUBLIC        P0
  D:0090H         PUBLIC        P1
  D:00A0H         PUBLIC        P2
  D:00B0H         PUBLIC        P3
  D:00D8H         PUBLIC        PWMCON0
  C:058BH         PUBLIC        _FLOOR_UpOrDown
  D:00A8H         PUBLIC        IE
  D:00B8H         PUBLIC        IP
  X:007AH         PUBLIC        adc_retval
  D:0098H         PUBLIC        SCON
  D:0088H         PUBLIC        TCON
  C:1340H         SYMBOL        get_adc_levels
  C:1ADFH         SYMBOL        _?ix1000
  D:00F8H         PUBLIC        SCON_1
  D:00E8H         PUBLIC        ADCCON0
  D:00C0H         PUBLIC        I2CON
  D:00C8H         PUBLIC        T2CON
  D:00D0H         PUBLIC        PSW
  -------         PROC          GET_ADC_LEVELS
  -------         DO            
  X:015EH         SYMBOL        i
  -------         ENDDO         
  C:1340H         LINE#         16
  C:1340H         LINE#         17
  C:1340H         LINE#         19
  C:135BH         LINE#         20
  C:135BH         LINE#         21
  C:13B0H         LINE#         22
  C:13C0H         LINE#         23
  -------         ENDPROC       GET_ADC_LEVELS
  -------         PROC          _FLOOR_UPORDOWN
  X:003CH         SYMBOL        desireIncl
  -------         DO            
  X:003EH         SYMBOL        i
  X:0040H         SYMBOL        resutlAdc
  X:0042H         SYMBOL        dir
  X:0043H         SYMBOL        incline_level
  -------         ENDDO         
  C:058BH         LINE#         25
  C:0593H         LINE#         26
  C:0593H         LINE#         29
  C:0599H         LINE#         30
  C:05BEH         LINE#         32
  C:05F2H         LINE#         33
  C:05F2H         LINE#         34
  C:05F7H         LINE#         35
  C:05F7H         LINE#         37
  C:05FAH         LINE#         40
  C:0615H         LINE#         41
  C:0615H         LINE#         42
  C:0643H         LINE#         43
  C:0643H         LINE#         44
BL51 BANKED LINKER/LOCATER V6.22.2.0                                                  05/15/2021  18:02:00  PAGE 16


  C:0669H         LINE#         45
  C:066BH         LINE#         46
  C:066BH         LINE#         47
  C:067BH         LINE#         49
  C:0686H         LINE#         51
  C:06A5H         LINE#         52
  C:06A5H         LINE#         53
  C:06AAH         LINE#         54
  C:06ACH         LINE#         55
  C:06EAH         LINE#         56
  C:06EAH         LINE#         57
  C:06F0H         LINE#         58
  C:06F0H         LINE#         60
  C:06F0H         LINE#         61
  C:06F6H         LINE#         62
  C:06F6H         LINE#         64
  C:0709H         LINE#         65
  C:0709H         LINE#         66
  C:0709H         LINE#         67
  C:070CH         LINE#         68
  C:0713H         LINE#         69
  C:0716H         LINE#         71
  C:0716H         LINE#         72
  C:0721H         LINE#         73
  C:075FH         LINE#         76
  C:0762H         LINE#         77
  C:0769H         LINE#         78
  C:076BH         LINE#         79
  C:076BH         LINE#         80
  C:076EH         LINE#         81
  C:0775H         LINE#         82
  C:0778H         LINE#         84
  C:0778H         LINE#         85
  C:0783H         LINE#         86
  C:07C1H         LINE#         89
  C:07C4H         LINE#         90
  C:07CBH         LINE#         91
  C:07CDH         LINE#         92
  C:07CDH         LINE#         93
  C:07D3H         LINE#         94
  C:07D3H         LINE#         95
  C:07D3H         LINE#         97
  C:07D8H         LINE#         98
  -------         ENDPROC       _FLOOR_UPORDOWN
  -------         ENDMOD        FLOOR

  -------         MODULE        IRF
  C:0000H         SYMBOL        _ICE_DUMMY_
  D:0080H         PUBLIC        P0
  D:0090H         PUBLIC        P1
  D:00A0H         PUBLIC        P2
  D:00B0H         PUBLIC        P3
  C:0F6BH         SYMBOL        IRF_CallBackHandle
  D:00D8H         PUBLIC        PWMCON0
  D:00A8H         PUBLIC        IE
  D:00B8H         PUBLIC        IP
  D:0098H         PUBLIC        SCON
BL51 BANKED LINKER/LOCATER V6.22.2.0                                                  05/15/2021  18:02:00  PAGE 17


  D:0088H         PUBLIC        TCON
  D:00F8H         PUBLIC        SCON_1
  C:19BDH         PUBLIC        _IRF_Send
  C:1638H         PUBLIC        IRF_Proc
  C:16D4H         PUBLIC        IRF_Init
  D:00E8H         PUBLIC        ADCCON0
  D:00C0H         PUBLIC        I2CON
  D:00C8H         PUBLIC        T2CON
  X:005EH         PUBLIC        irf_CommandBuff
  X:0070H         PUBLIC        irf_CommandQueue
  D:00D0H         PUBLIC        PSW
  -------         PROC          IRF_INIT
  C:16D4H         LINE#         37
  C:16D4H         LINE#         38
  C:16D4H         LINE#         39
  C:16DFH         LINE#         40
  C:16E8H         LINE#         41
  C:171AH         LINE#         43
  C:171DH         LINE#         44
  -------         ENDPROC       IRF_INIT
  -------         PROC          IRF_CALLBACKHANDLE
  -------         DO            
  X:005BH         SYMBOL        revByte
  X:005CH         SYMBOL        revByteCount
  X:0092H         SYMBOL        revBuff
  X:009CH         SYMBOL        sendError
  -------         ENDDO         
  C:0F6BH         LINE#         51
  C:0F6BH         LINE#         52
  C:0F6BH         LINE#         57
  C:0F73H         LINE#         58
  C:0F91H         LINE#         60
  C:0F9EH         LINE#         61
  C:0F9EH         LINE#         62
  C:0FA7H         LINE#         63
  C:0FA7H         LINE#         64
  C:0FBBH         LINE#         65
  C:0FBBH         LINE#         66
  C:0FDAH         LINE#         67
  C:0FDAH         LINE#         68
  C:1011H         LINE#         69
  C:1011H         LINE#         70
  C:1037H         LINE#         71
  C:1039H         LINE#         73
  C:1039H         LINE#         74
  C:1042H         LINE#         75
  C:1042H         LINE#         76
  C:104AH         LINE#         77
  C:104AH         LINE#         78
  C:104AH         LINE#         79
  -------         ENDPROC       IRF_CALLBACKHANDLE
  -------         PROC          IRF_PROC
  -------         DO            
  X:00B7H         SYMBOL        irf_CommandBuff
  -------         ENDDO         
  C:1638H         LINE#         86
  C:1638H         LINE#         87
BL51 BANKED LINKER/LOCATER V6.22.2.0                                                  05/15/2021  18:02:00  PAGE 18


  C:1638H         LINE#         89
  C:1644H         LINE#         90
  C:1644H         LINE#         91
  C:166AH         LINE#         92
  C:1687H         LINE#         95
  C:1687H         LINE#         96
  -------         ENDPROC       IRF_PROC
  -------         PROC          _IRF_SEND
  X:0125H         SYMBOL        buff
  X:0128H         SYMBOL        length
  C:19BDH         LINE#         103
  C:19CDH         LINE#         104
  C:19CDH         LINE#         105
  C:19E0H         LINE#         106
  -------         ENDPROC       _IRF_SEND
  -------         ENDMOD        IRF

  -------         MODULE        MOTOR
  C:0000H         SYMBOL        _ICE_DUMMY_
  D:00B3H         PUBLIC        P1M1
  D:0080H         PUBLIC        P0
  D:00B4H         PUBLIC        P1M2
  D:0090H         PUBLIC        P1
  D:00A0H         PUBLIC        P2
  D:00B0H         PUBLIC        P3
  D:00D8H         PUBLIC        PWMCON0
  C:1BDDH         PUBLIC        _MOTOR_Init
  D:00A8H         PUBLIC        IE
  C:0E80H         PUBLIC        _MOTOR_SetSpeed
  D:00B8H         PUBLIC        IP
  D:0098H         PUBLIC        SCON
  D:0088H         PUBLIC        TCON
  X:0162H         PUBLIC        checkStopCmd
  D:00F8H         PUBLIC        SCON_1
  C:15E4H         PUBLIC        _MOTOR_SetStop
  C:1C66H         PUBLIC        MOTOR_Config
  D:00E8H         PUBLIC        ADCCON0
  D:00C0H         PUBLIC        I2CON
  D:00C8H         PUBLIC        T2CON
  D:00D4H         PUBLIC        PWM2H
  C:1C21H         PUBLIC        MOTOR_GetCurrentSpeed
  D:00DCH         PUBLIC        PWM2L
  D:00D0H         PUBLIC        PSW
  -------         PROC          MOTOR_CONFIG
  C:1C66H         LINE#         25
  C:1C66H         LINE#         26
  C:1C66H         LINE#         27
  C:1C6CH         LINE#         28
  C:1C73H         LINE#         29
  -------         ENDPROC       MOTOR_CONFIG
  -------         PROC          _MOTOR_INIT
  X:0160H         SYMBOL        defaultDuty
  C:1BDDH         LINE#         35
  C:1BE5H         LINE#         36
  C:1BE5H         LINE#         37
  C:1BE8H         LINE#         38
  C:1BF3H         LINE#         39
BL51 BANKED LINKER/LOCATER V6.22.2.0                                                  05/15/2021  18:02:00  PAGE 19


  -------         ENDPROC       _MOTOR_INIT
  -------         PROC          MOTOR_GETCURRENTSPEED
  C:1C21H         LINE#         45
  C:1C21H         LINE#         46
  C:1C21H         LINE#         47
  C:1C33H         LINE#         48
  -------         ENDPROC       MOTOR_GETCURRENTSPEED
  -------         PROC          _MOTOR_SETSPEED
  X:00D6H         SYMBOL        currentDuty
  X:00D8H         SYMBOL        desireDuty
  -------         DO            
  X:00DAH         SYMBOL        i
  -------         ENDDO         
  C:0E80H         LINE#         54
  C:0E90H         LINE#         55
  C:0E90H         LINE#         56
  C:0E98H         LINE#         57
  C:0EAFH         LINE#         58
  C:0EAFH         LINE#         59
  C:0EE7H         LINE#         60
  C:0EE7H         LINE#         61
  C:0EF2H         LINE#         62
  C:0EF9H         LINE#         63
  C:0F09H         LINE#         64
  C:0F0BH         LINE#         65
  C:0F0BH         LINE#         66
  C:0F40H         LINE#         67
  C:0F40H         LINE#         68
  C:0F4BH         LINE#         69
  C:0F52H         LINE#         70
  C:0F62H         LINE#         71
  C:0F62H         LINE#         72
  C:0F6AH         LINE#         73
  -------         ENDPROC       _MOTOR_SETSPEED
  -------         PROC          _MOTOR_SETSTOP
  X:0129H         SYMBOL        currentDuty
  -------         DO            
  X:012BH         SYMBOL        i
  -------         ENDDO         
  C:15E4H         LINE#         74
  C:15ECH         LINE#         75
  C:15ECH         LINE#         76
  C:15F4H         LINE#         92
  C:1615H         LINE#         93
  C:1615H         LINE#         94
  C:1620H         LINE#         95
  C:1627H         LINE#         96
  C:1637H         LINE#         97
  -------         ENDPROC       _MOTOR_SETSTOP
  -------         ENDMOD        MOTOR

  -------         MODULE        RELAY
  C:0000H         SYMBOL        _ICE_DUMMY_
  D:00B1H         PUBLIC        P0M1
  D:00B3H         PUBLIC        P1M1
  D:00B2H         PUBLIC        P0M2
  D:0080H         PUBLIC        P0
BL51 BANKED LINKER/LOCATER V6.22.2.0                                                  05/15/2021  18:02:00  PAGE 20


  C:1CC9H         PUBLIC        RELAY_DownReset
  D:00B4H         PUBLIC        P1M2
  D:0090H         PUBLIC        P1
  D:00A0H         PUBLIC        P2
  D:00B0H         PUBLIC        P3
  D:00D8H         PUBLIC        PWMCON0
  D:00A8H         PUBLIC        IE
  D:00B8H         PUBLIC        IP
  C:1CBDH         PUBLIC        RELAY_Up
  C:1CC1H         PUBLIC        RELAY_UpReset
  D:0098H         PUBLIC        SCON
  D:0088H         PUBLIC        TCON
  C:1AA9H         PUBLIC        RELAY_Config
  D:00F8H         PUBLIC        SCON_1
  D:00E8H         PUBLIC        ADCCON0
  D:00C0H         PUBLIC        I2CON
  C:1AC5H         PUBLIC        _RELAY_AC
  D:00C8H         PUBLIC        T2CON
  C:1CC5H         PUBLIC        RELAY_Down
  D:00D0H         PUBLIC        PSW
  -------         PROC          RELAY_CONFIG
  C:1AA9H         LINE#         22
  C:1AA9H         LINE#         23
  C:1AA9H         LINE#         24
  C:1AAFH         LINE#         25
  C:1AB5H         LINE#         26
  C:1ABBH         LINE#         27
  C:1ABEH         LINE#         28
  C:1AC1H         LINE#         29
  C:1AC4H         LINE#         30
  -------         ENDPROC       RELAY_CONFIG
  -------         PROC          _RELAY_AC
  X:016CH         SYMBOL        state
  C:1AC5H         LINE#         36
  C:1ACAH         LINE#         37
  C:1ACAH         LINE#         38
  C:1AD7H         LINE#         39
  C:1AD7H         LINE#         40
  C:1ADAH         LINE#         41
  C:1ADBH         LINE#         42
  C:1ADBH         LINE#         43
  C:1ADEH         LINE#         44
  C:1ADEH         LINE#         46
  -------         ENDPROC       _RELAY_AC
  -------         PROC          RELAY_UP
  C:1CBDH         LINE#         53
  C:1CBDH         LINE#         54
  C:1CBDH         LINE#         55
  C:1CC0H         LINE#         56
  -------         ENDPROC       RELAY_UP
  -------         PROC          RELAY_UPRESET
  C:1CC1H         LINE#         63
  C:1CC1H         LINE#         64
  C:1CC1H         LINE#         65
  C:1CC4H         LINE#         66
  -------         ENDPROC       RELAY_UPRESET
  -------         PROC          RELAY_DOWN
BL51 BANKED LINKER/LOCATER V6.22.2.0                                                  05/15/2021  18:02:00  PAGE 21


  C:1CC5H         LINE#         73
  C:1CC5H         LINE#         74
  C:1CC5H         LINE#         75
  C:1CC8H         LINE#         76
  -------         ENDPROC       RELAY_DOWN
  -------         PROC          RELAY_DOWNRESET
  C:1CC9H         LINE#         83
  C:1CC9H         LINE#         84
  C:1CC9H         LINE#         85
  C:1CCCH         LINE#         86
  -------         ENDPROC       RELAY_DOWNRESET
  -------         ENDMOD        RELAY

  -------         MODULE        ADC
  C:0000H         SYMBOL        _ICE_DUMMY_
  D:00F6H         PUBLIC        AINDIDS
  D:00B3H         PUBLIC        P1M1
  D:0080H         PUBLIC        P0
  D:00B4H         PUBLIC        P1M2
  D:0090H         PUBLIC        P1
  D:00A0H         PUBLIC        P2
  D:00B0H         PUBLIC        P3
  D:00D8H         PUBLIC        PWMCON0
  C:1519H         PUBLIC        readResultConvert
  D:00A8H         PUBLIC        IE
  B:00E8H.7       PUBLIC        ADCF
  C:1CA4H         SYMBOL        enable_ADC
  D:00B8H         PUBLIC        IP
  D:0098H         PUBLIC        SCON
  D:0088H         PUBLIC        TCON
  D:00F8H         PUBLIC        SCON_1
  D:00E8H         PUBLIC        ADCCON0
  D:00E1H         PUBLIC        ADCCON1
  D:00C0H         PUBLIC        I2CON
  C:1C34H         PUBLIC        init_ADC
  D:00C3H         PUBLIC        ADCRH
  D:00C8H         PUBLIC        T2CON
  D:00C2H         PUBLIC        ADCRL
  D:00D0H         PUBLIC        PSW
  -------         PROC          INIT_ADC
  C:1C34H         LINE#         6
  C:1C34H         LINE#         7
  C:1C34H         LINE#         8
  C:1C3AH         LINE#         9
  C:1C3DH         LINE#         10
  C:1C3FH         LINE#         11
  C:1C42H         LINE#         12
  C:1C45H         LINE#         13
  -------         ENDPROC       INIT_ADC
  -------         PROC          ENABLE_ADC
  C:1CA4H         LINE#         15
  C:1CA4H         LINE#         16
  C:1CA4H         LINE#         17
  C:1CA6H         LINE#         18
  C:1CA9H         LINE#         19
  C:1CACH         LINE#         20
  -------         ENDPROC       ENABLE_ADC
BL51 BANKED LINKER/LOCATER V6.22.2.0                                                  05/15/2021  18:02:00  PAGE 22


  -------         PROC          READRESULTCONVERT
  -------         DO            
  X:00DCH         SYMBOL        lowByte
  X:00DEH         SYMBOL        highByte
  X:00E0H         SYMBOL        resutl
  -------         ENDDO         
  C:1519H         LINE#         22
  C:1519H         LINE#         23
  C:1519H         LINE#         24
  C:1521H         LINE#         25
  C:1529H         LINE#         26
  C:1531H         LINE#         28
  C:1534H         LINE#         30
  C:1543H         LINE#         31
  C:154FH         LINE#         33
  C:157BH         LINE#         34
  C:1583H         LINE#         35
  -------         ENDPROC       READRESULTCONVERT
  -------         ENDMOD        ADC

  -------         MODULE        DELAY
  C:0000H         SYMBOL        _ICE_DUMMY_
  D:0080H         PUBLIC        P0
  D:0090H         PUBLIC        P1
  D:00A0H         PUBLIC        P2
  D:00B0H         PUBLIC        P3
  D:00D8H         PUBLIC        PWMCON0
  D:00A8H         PUBLIC        IE
  D:00B8H         PUBLIC        IP
  D:0098H         PUBLIC        SCON
  D:0088H         PUBLIC        TCON
  D:00F8H         PUBLIC        SCON_1
  C:18B9H         PUBLIC        _delay_ms
  D:00E8H         PUBLIC        ADCCON0
  C:17A7H         PUBLIC        _delay_us
  D:00C0H         PUBLIC        I2CON
  D:00C8H         PUBLIC        T2CON
  D:00D0H         PUBLIC        PSW
  -------         PROC          _DELAY_MS
  X:0164H         SYMBOL        value
  C:18B9H         LINE#         27
  C:18C1H         LINE#         28
  C:18C1H         LINE#         29
  C:18CDH         LINE#         30
  C:18CDH         LINE#         31
  C:18D4H         LINE#         32
  C:18E2H         LINE#         33
  C:18E4H         LINE#         34
  -------         ENDPROC       _DELAY_MS
  -------         PROC          _DELAY_US
  X:012DH         SYMBOL        value
  -------         DO            
  X:012FH         SYMBOL        loops
  -------         ENDDO         
  C:17A7H         LINE#         42
  C:17AFH         LINE#         43
  C:17AFH         LINE#         44
BL51 BANKED LINKER/LOCATER V6.22.2.0                                                  05/15/2021  18:02:00  PAGE 23


  C:17C6H         LINE#         46
  C:17D2H         LINE#         47
  C:17D2H         LINE#         48
  C:17D3H         LINE#         49
  C:17E1H         LINE#         50
  C:17E3H         LINE#         51
  -------         ENDPROC       _DELAY_US
  -------         ENDMOD        DELAY

  -------         MODULE        GPIO
  C:0000H         SYMBOL        _ICE_DUMMY_
  D:00B1H         PUBLIC        P0M1
  D:00B2H         PUBLIC        P0M2
  D:0080H         PUBLIC        P0
  D:0090H         PUBLIC        P1
  D:00A0H         PUBLIC        P2
  D:00B0H         PUBLIC        P3
  D:00D8H         PUBLIC        PWMCON0
  D:00A8H         PUBLIC        IE
  D:00B8H         PUBLIC        IP
  D:00B2H         PUBLIC        P0SR
  B:0080H.1       PUBLIC        P01
  B:0080H.2       PUBLIC        P02
  D:0098H         PUBLIC        SCON
  D:0088H         PUBLIC        TCON
  D:00F8H         PUBLIC        SCON_1
  D:00E8H         PUBLIC        ADCCON0
  D:00C0H         PUBLIC        I2CON
  C:1BF4H         PUBLIC        GPIO_SOFT_UART_Init
  D:00C8H         PUBLIC        T2CON
  D:00D0H         PUBLIC        PSW
  -------         PROC          GPIO_SOFT_UART_INIT
  C:1BF4H         LINE#         6
  C:1BF4H         LINE#         7
  C:1BF4H         LINE#         14
  C:1BFAH         LINE#         15
  C:1BFDH         LINE#         16
  C:1BFFH         LINE#         18
  C:1C05H         LINE#         19
  C:1C08H         LINE#         20
  C:1C0AH         LINE#         21
  -------         ENDPROC       GPIO_SOFT_UART_INIT
  -------         ENDMOD        GPIO

  -------         MODULE        PWM
  C:0000H         SYMBOL        _ICE_DUMMY_
  D:00B3H         PUBLIC        P1M1
  D:0080H         PUBLIC        P0
  D:00B4H         PUBLIC        P1M2
  D:0090H         PUBLIC        P1
  D:00A0H         PUBLIC        P2
  D:00B0H         PUBLIC        P3
  D:00D8H         PUBLIC        PWMCON0
  D:00DFH         PUBLIC        PWMCON1
  D:00D1H         PUBLIC        PWMPH
  D:00A8H         PUBLIC        IE
  D:00D9H         PUBLIC        PWMPL
BL51 BANKED LINKER/LOCATER V6.22.2.0                                                  05/15/2021  18:02:00  PAGE 24


  D:00B8H         PUBLIC        IP
  B:00D8H.6       PUBLIC        LOAD
  C:18E5H         PUBLIC        _PWM_SetDuty
  D:0098H         PUBLIC        SCON
  D:0088H         PUBLIC        TCON
  D:00F8H         PUBLIC        SCON_1
  B:00D8H.4       PUBLIC        CLRPWM
  D:00E8H         PUBLIC        ADCCON0
  D:00C0H         PUBLIC        I2CON
  C:1688H         PUBLIC        _PWM_Start
  D:00C8H         PUBLIC        T2CON
  C:19E1H         PUBLIC        PWM_Init
  B:00D8H.7       PUBLIC        PWMRUN
  D:00D6H         PUBLIC        PNP
  D:00D4H         PUBLIC        PWM2H
  D:008EH         PUBLIC        CKCON
  D:00DCH         PUBLIC        PWM2L
  D:00DEH         PUBLIC        PIOCON0
  D:00D0H         PUBLIC        PSW
  C:1767H         PUBLIC        _PWM_Stop
  -------         PROC          PWM_INIT
  C:19E1H         LINE#         28
  C:19E1H         LINE#         29
  C:19E1H         LINE#         35
  C:19E7H         LINE#         36
  C:19EAH         LINE#         37
  C:19EDH         LINE#         38
  C:19F0H         LINE#         39
  C:19F2H         LINE#         40
  C:19F5H         LINE#         41
  C:19FBH         LINE#         42
  C:19FEH         LINE#         44
  C:1A01H         LINE#         45
  C:1A04H         LINE#         47
  -------         ENDPROC       PWM_INIT
  -------         PROC          _PWM_SETDUTY
  X:0166H         SYMBOL        pwmDuty
  C:18E5H         LINE#         54
  C:18EDH         LINE#         55
  C:18EDH         LINE#         57
  C:18EFH         LINE#         58
  C:18FFH         LINE#         59
  C:190CH         LINE#         60
  C:190EH         LINE#         61
  C:1910H         LINE#         62
  -------         ENDPROC       _PWM_SETDUTY
  -------         PROC          _PWM_STOP
  X:0141H         SYMBOL        pwmDuty
  -------         DO            
  X:0143H         SYMBOL        i
  -------         ENDDO         
  C:1767H         LINE#         70
  C:176FH         LINE#         71
  C:176FH         LINE#         73
  C:178CH         LINE#         74
  C:178CH         LINE#         75
  C:1796H         LINE#         76
BL51 BANKED LINKER/LOCATER V6.22.2.0                                                  05/15/2021  18:02:00  PAGE 25


  C:179DH         LINE#         77
  C:17A6H         LINE#         78
  -------         ENDPROC       _PWM_STOP
  -------         PROC          _PWM_START
  X:0131H         SYMBOL        pwmDuty
  -------         DO            
  X:0133H         SYMBOL        i
  -------         ENDDO         
  C:1688H         LINE#         86
  C:1690H         LINE#         87
  C:1690H         LINE#         89
  C:16B1H         LINE#         90
  C:16B1H         LINE#         91
  C:16BCH         LINE#         92
  C:16C3H         LINE#         93
  C:16D3H         LINE#         94
  -------         ENDPROC       _PWM_START
  -------         ENDMOD        PWM

  -------         MODULE        SOFT_UART
  C:0000H         SYMBOL        _ICE_DUMMY_
  D:00B1H         PUBLIC        P0M1
  D:00B2H         PUBLIC        P0M2
  D:0080H         PUBLIC        P0
  D:0090H         PUBLIC        P1
  D:00A0H         PUBLIC        P2
  D:00B0H         PUBLIC        P3
  D:00D8H         PUBLIC        PWMCON0
  D:00A8H         PUBLIC        IE
  D:0096H         PUBLIC        CKSWT
  C:181CH         PUBLIC        TICK_Count
  D:00B8H         PUBLIC        IP
  D:0097H         PUBLIC        CKEN
  D:00B2H         PUBLIC        P0SR
  B:0080H.2       PUBLIC        P02
  D:0098H         PUBLIC        SCON
  D:0088H         PUBLIC        TCON
  X:0135H         SYMBOL        tickCount
  C:1C57H         SYMBOL        Handle_Tick
  C:1C8CH         PUBLIC        _SOFT_UART_SendData
  D:00F8H         PUBLIC        SCON_1
  B:00A8H.1       PUBLIC        ET0
  D:008CH         PUBLIC        TH0
  D:008AH         PUBLIC        TL0
  C:1851H         PUBLIC        _SOFT_UART_Init
  D:00E8H         PUBLIC        ADCCON0
  D:00C0H         PUBLIC        I2CON
  C:0D79H         PUBLIC        _SOFT_UART_SendByte
  D:00C8H         PUBLIC        T2CON
  D:00D0H         PUBLIC        PSW
  C:1C80H         SYMBOL        SOFT_UART_PinInit
  -------         PROC          SOFT_UART_PININIT
  C:1C80H         LINE#         13
  C:1C80H         LINE#         14
  C:1C80H         LINE#         15
  C:1C86H         LINE#         16
  C:1C89H         LINE#         17
BL51 BANKED LINKER/LOCATER V6.22.2.0                                                  05/15/2021  18:02:00  PAGE 26


  C:1C8BH         LINE#         18
  -------         ENDPROC       SOFT_UART_PININIT
  -------         PROC          TICK_COUNT
  C:181CH         LINE#         20
  C:181CH         LINE#         21
  C:181CH         LINE#         22
  C:1844H         LINE#         25
  C:1847H         LINE#         26
  C:184AH         LINE#         27
  C:184DH         LINE#         28
  C:1850H         LINE#         29
  -------         ENDPROC       TICK_COUNT
  -------         PROC          HANDLE_TICK
  C:1C57H         LINE#         31
  C:1C57H         LINE#         32
  C:1C57H         LINE#         33
  C:1C65H         LINE#         34
  -------         ENDPROC       HANDLE_TICK
  -------         PROC          _SOFT_UART_INIT
  X:0168H         SYMBOL        baudRate
  C:1851H         LINE#         36
  C:1859H         LINE#         37
  C:1859H         LINE#         38
  C:185CH         LINE#         39
  C:185FH         LINE#         40
  C:1862H         LINE#         41
  C:1865H         LINE#         43
  C:1872H         LINE#         44
  C:1874H         LINE#         45
  C:1877H         LINE#         46
  C:1880H         LINE#         47
  C:1885H         LINE#         48
  -------         ENDPROC       _SOFT_UART_INIT
  -------         PROC          _SOFT_UART_SENDBYTE
  X:00ACH         SYMBOL        dataByte
  -------         DO            
  X:00ADH         SYMBOL        i
  X:00AFH         SYMBOL        buff
  -------         ENDDO         
  C:0D79H         LINE#         50
  C:0D7EH         LINE#         51
  C:0D7EH         LINE#         54
  C:0D80H         LINE#         56
  C:0D9BH         LINE#         57
  C:0D9BH         LINE#         58
  C:0DCBH         LINE#         59
  C:0DDBH         LINE#         60
  C:0DE5H         LINE#         61
  C:0DF6H         LINE#         62
  C:0DF8H         LINE#         65
  C:0E13H         LINE#         66
  C:0E13H         LINE#         67
  C:0E3AH         LINE#         68
  C:0E56H         LINE#         69
  C:0E56H         LINE#         70
  C:0E58H         LINE#         72
  C:0E5AH         LINE#         73
BL51 BANKED LINKER/LOCATER V6.22.2.0                                                  05/15/2021  18:02:00  PAGE 27


  C:0E5AH         LINE#         74
  C:0E5CH         LINE#         76
  C:0E5CH         LINE#         77
  C:0E6CH         LINE#         78
  C:0E7DH         LINE#         79
  C:0E7FH         LINE#         81
  -------         ENDPROC       _SOFT_UART_SENDBYTE
  -------         PROC          _SOFT_UART_SENDDATA
  X:0144H         SYMBOL        str
  C:1C8CH         LINE#         83
  C:1C97H         LINE#         84
  C:1C97H         LINE#         86
  -------         ENDPROC       _SOFT_UART_SENDDATA
  -------         ENDMOD        SOFT_UART

  -------         MODULE        TIMER
  C:0000H         SYMBOL        _ICE_DUMMY_
  D:0080H         PUBLIC        P0
  D:0090H         PUBLIC        P1
  D:00A0H         PUBLIC        P2
  D:00B0H         PUBLIC        P3
  D:00D8H         PUBLIC        PWMCON0
  D:00A8H         PUBLIC        IE
  D:00B8H         PUBLIC        IP
  C:193DH         PUBLIC        _TIMER_Disable
  C:1911H         PUBLIC        _TIMER_Enable
  D:0098H         PUBLIC        SCON
  D:0089H         PUBLIC        TMOD
  D:0088H         PUBLIC        TCON
  D:00F8H         PUBLIC        SCON_1
  D:008CH         PUBLIC        TH0
  D:008AH         PUBLIC        TL0
  D:00E8H         PUBLIC        ADCCON0
  D:00C0H         PUBLIC        I2CON
  C:143BH         PUBLIC        Timer0Overflow_ISR
  X:014DH         PUBLIC        p_timerCallBack
  D:00C8H         PUBLIC        T2CON
  D:00C4H         PUBLIC        T3CON
  C:1A05H         PUBLIC        _TIMER_CallBackInit
  D:008EH         PUBLIC        CKCON
  C:17E4H         PUBLIC        _TIMER_Init
  D:00D0H         PUBLIC        PSW
  -------         PROC          _TIMER_INIT
  X:0147H         SYMBOL        channel
  X:0148H         SYMBOL        baudRate
  C:17E4H         LINE#         28
  C:17F1H         LINE#         29
  C:17F1H         LINE#         30
  C:180AH         LINE#         31
  C:180AH         LINE#         32
  C:180AH         LINE#         33
  C:180DH         LINE#         34
  C:1810H         LINE#         38
  C:1813H         LINE#         39
  C:1816H         LINE#         40
  C:1816H         LINE#         41
  C:1816H         LINE#         42
BL51 BANKED LINKER/LOCATER V6.22.2.0                                                  05/15/2021  18:02:00  PAGE 28


  C:1816H         LINE#         43
  C:1816H         LINE#         44
  C:1816H         LINE#         45
  C:1816H         LINE#         46
  C:1816H         LINE#         47
  C:1816H         LINE#         48
  C:1816H         LINE#         49
  C:1816H         LINE#         50
  C:181BH         LINE#         51
  -------         ENDPROC       _TIMER_INIT
  -------         PROC          _TIMER_CALLBACKINIT
  X:014AH         SYMBOL        pHandle
  C:1A05H         LINE#         59
  C:1A10H         LINE#         60
  C:1A10H         LINE#         61
  C:1A26H         LINE#         62
  -------         ENDPROC       _TIMER_CALLBACKINIT
  -------         PROC          _TIMER_ENABLE
  X:016DH         SYMBOL        channel
  C:1911H         LINE#         70
  C:1916H         LINE#         71
  C:1916H         LINE#         72
  C:192FH         LINE#         73
  C:192FH         LINE#         74
  C:192FH         LINE#         75
  C:1932H         LINE#         76
  C:1933H         LINE#         77
  C:1933H         LINE#         78
  C:1936H         LINE#         79
  C:1936H         LINE#         80
  C:1939H         LINE#         81
  C:1939H         LINE#         82
  C:193CH         LINE#         83
  C:193CH         LINE#         84
  C:193CH         LINE#         85
  C:193CH         LINE#         86
  -------         ENDPROC       _TIMER_ENABLE
  -------         PROC          _TIMER_DISABLE
  X:016EH         SYMBOL        channel
  C:193DH         LINE#         94
  C:1942H         LINE#         95
  C:1942H         LINE#         96
  C:195BH         LINE#         97
  C:195BH         LINE#         98
  C:195BH         LINE#         99
  C:195EH         LINE#         100
  C:195FH         LINE#         101
  C:195FH         LINE#         102
  C:1962H         LINE#         103
  C:1962H         LINE#         104
  C:1965H         LINE#         105
  C:1965H         LINE#         106
  C:1968H         LINE#         107
  C:1968H         LINE#         108
  C:1968H         LINE#         109
  C:1968H         LINE#         110
  -------         ENDPROC       _TIMER_DISABLE
BL51 BANKED LINKER/LOCATER V6.22.2.0                                                  05/15/2021  18:02:00  PAGE 29


  -------         PROC          TIMER0OVERFLOW_ISR
  C:143BH         LINE#         118
  C:1458H         LINE#         120
  C:1482H         LINE#         121
  C:1482H         LINE#         122
  C:1490H         LINE#         123
  C:1490H         LINE#         124
  -------         ENDPROC       TIMER0OVERFLOW_ISR
  -------         ENDMOD        TIMER

  -------         MODULE        UART
  C:0000H         SYMBOL        _ICE_DUMMY_
  D:00B1H         PUBLIC        P0M1
  D:00B2H         PUBLIC        P0M2
  D:0080H         PUBLIC        P0
  D:0090H         PUBLIC        P1
  X:0153H         PUBLIC        p_uartCallBack
  D:00A0H         PUBLIC        P2
  D:00B0H         PUBLIC        P3
  D:0084H         PUBLIC        RCTRIM0
  D:0085H         PUBLIC        RCTRIM1
  D:00D8H         PUBLIC        PWMCON0
  C:13C1H         PUBLIC        SerialPort0_ISR
  D:00A8H         PUBLIC        IE
  D:00C7H         PUBLIC        TA
  B:00A8H.4       PUBLIC        ES
  D:00B8H         PUBLIC        IP
  B:0098H.0       PUBLIC        RI
  B:0098H.1       PUBLIC        TI
  C:1A27H         PUBLIC        _UART_CallBackInit
  C:171EH         PUBLIC        _UART_SendData
  D:0099H         PUBLIC        SBUF
  D:0087H         PUBLIC        PCON
  C:10EFH         PUBLIC        _UART_Init
  D:0098H         PUBLIC        SCON
  D:0088H         PUBLIC        TCON
  C:1A6AH         PUBLIC        _UART_SendByte
  D:00F8H         PUBLIC        SCON_1
  C:1C98H         PUBLIC        UART_RevData
  D:00C6H         PUBLIC        RH3
  C:118DH         PUBLIC        MODIFY_Hirc166
  D:00C5H         PUBLIC        RL3
  C:1CD3H         PUBLIC        UART_Disable
  D:00E8H         PUBLIC        ADCCON0
  D:00C0H         PUBLIC        I2CON
  D:00C8H         PUBLIC        T2CON
  C:1CD0H         PUBLIC        UART_Enable
  D:00C4H         PUBLIC        T3CON
  D:00D0H         PUBLIC        PSW
  -------         PROC          _UART_INIT
  X:0139H         SYMBOL        baudRate
  C:10EFH         LINE#         28
  C:10F5H         LINE#         29
  C:10F5H         LINE#         30
  C:10FBH         LINE#         31
  C:1101H         LINE#         34
  C:1138H         LINE#         35
BL51 BANKED LINKER/LOCATER V6.22.2.0                                                  05/15/2021  18:02:00  PAGE 30


  C:117AH         LINE#         42
  C:117DH         LINE#         43
  C:1180H         LINE#         44
  C:1183H         LINE#         45
  C:1186H         LINE#         46
  C:1189H         LINE#         47
  C:118CH         LINE#         48
  -------         ENDPROC       _UART_INIT
  -------         PROC          UART_ENABLE
  C:1CD0H         LINE#         56
  C:1CD0H         LINE#         57
  C:1CD0H         LINE#         58
  C:1CD2H         LINE#         59
  -------         ENDPROC       UART_ENABLE
  -------         PROC          UART_DISABLE
  C:1CD3H         LINE#         67
  C:1CD3H         LINE#         68
  C:1CD3H         LINE#         69
  C:1CD5H         LINE#         70
  -------         ENDPROC       UART_DISABLE
  -------         PROC          _UART_SENDBYTE
  X:016AH         SYMBOL        byte
  -------         DO            
  X:016BH         SYMBOL        byteReverse
  -------         ENDDO         
  C:1A6AH         LINE#         79
  C:1A6FH         LINE#         80
  C:1A6FH         LINE#         82
  C:1A71H         LINE#         83
  C:1A7FH         LINE#         84
  C:1A86H         LINE#         85
  C:1A89H         LINE#         86
  -------         ENDPROC       _UART_SENDBYTE
  -------         PROC          _UART_SENDDATA
  X:0120H         SYMBOL        buff
  X:0123H         SYMBOL        length
  -------         DO            
  X:0124H         SYMBOL        i
  -------         ENDDO         
  C:171EH         LINE#         94
  C:172EH         LINE#         95
  C:172EH         LINE#         97
  C:1742H         LINE#         98
  C:1742H         LINE#         99
  C:175EH         LINE#         100
  C:1766H         LINE#         101
  -------         ENDPROC       _UART_SENDDATA
  -------         PROC          UART_REVDATA
  -------         DO            
  X:016FH         SYMBOL        dataRx
  -------         ENDDO         
  C:1C98H         LINE#         109
  C:1C98H         LINE#         110
  C:1C98H         LINE#         112
  C:1C9EH         LINE#         113
  C:1CA3H         LINE#         114
  -------         ENDPROC       UART_REVDATA
BL51 BANKED LINKER/LOCATER V6.22.2.0                                                  05/15/2021  18:02:00  PAGE 31


  -------         PROC          MODIFY_HIRC166
  -------         DO            
  X:013DH         SYMBOL        hircmap0
  X:013EH         SYMBOL        hircmap1
  X:013FH         SYMBOL        trimvalue16bit
  -------         ENDDO         
  C:118DH         LINE#         122
  C:118DH         LINE#         123
  C:118DH         LINE#         127
  C:119DH         LINE#         128
  C:119DH         LINE#         129
  C:11A3H         LINE#         130
  C:11A9H         LINE#         131
  C:11D0H         LINE#         132
  C:11DEH         LINE#         133
  C:11EFH         LINE#         134
  C:1203H         LINE#         135
  C:1206H         LINE#         136
  C:1209H         LINE#         137
  C:1210H         LINE#         138
  C:1213H         LINE#         139
  C:1216H         LINE#         140
  C:121DH         LINE#         142
  C:1220H         LINE#         143
  C:1220H         LINE#         144
  -------         ENDPROC       MODIFY_HIRC166
  -------         PROC          _UART_CALLBACKINIT
  X:0150H         SYMBOL        uartCallBackFnc
  C:1A27H         LINE#         152
  C:1A32H         LINE#         153
  C:1A32H         LINE#         154
  C:1A48H         LINE#         155
  -------         ENDPROC       _UART_CALLBACKINIT
  -------         PROC          SERIALPORT0_ISR
  C:13C1H         LINE#         163
  C:13DEH         LINE#         165
  C:13E1H         LINE#         166
  C:13E1H         LINE#         167
  C:13E3H         LINE#         168
  C:140DH         LINE#         169
  C:140DH         LINE#         170
  C:141BH         LINE#         171
  C:141BH         LINE#         172
  C:141BH         LINE#         173
  C:141EH         LINE#         174
  C:1420H         LINE#         175
  -------         ENDPROC       SERIALPORT0_ISR
  -------         ENDMOD        UART

  -------         MODULE        QUEUE
  C:0000H         SYMBOL        _ICE_DUMMY_
  D:0080H         PUBLIC        P0
  D:0090H         PUBLIC        P1
  D:00A0H         PUBLIC        P2
  D:00B0H         PUBLIC        P3
  D:00D8H         PUBLIC        PWMCON0
  C:0B36H         PUBLIC        _QUEUE_Get
BL51 BANKED LINKER/LOCATER V6.22.2.0                                                  05/15/2021  18:02:00  PAGE 32


  C:07D9H         PUBLIC        _QUEUE_Push
  D:00A8H         PUBLIC        IE
  D:00B8H         PUBLIC        IP
  D:0098H         PUBLIC        SCON
  D:0088H         PUBLIC        TCON
  D:00F8H         PUBLIC        SCON_1
  D:00E8H         PUBLIC        ADCCON0
  D:00C0H         PUBLIC        I2CON
  D:00C8H         PUBLIC        T2CON
  C:1A49H         PUBLIC        _QUEUE_Count
  C:1994H         PUBLIC        _QUEUE_Empty
  D:00D0H         PUBLIC        PSW
  C:104BH         PUBLIC        _QUEUE_Init
  -------         PROC          _QUEUE_INIT
  X:00C0H         SYMBOL        q
  X:00C3H         SYMBOL        buffer
  X:00C6H         SYMBOL        queue_size
  X:00C7H         SYMBOL        element_size
  C:104BH         LINE#         22
  C:1056H         LINE#         23
  C:1056H         LINE#         24
  C:106EH         LINE#         25
  C:1086H         LINE#         26
  C:109BH         LINE#         27
  C:10B5H         LINE#         28
  C:10CFH         LINE#         29
  C:10EEH         LINE#         30
  -------         ENDPROC       _QUEUE_INIT
  -------         PROC          _QUEUE_PUSH
  X:00E2H         SYMBOL        q
  X:00E5H         SYMBOL        buffer
  C:07D9H         LINE#         36
  C:07E4H         LINE#         37
  C:07E4H         LINE#         38
  C:080FH         LINE#         39
  C:080FH         LINE#         40
  C:085EH         LINE#         41
  C:085EH         LINE#         42
  C:0876H         LINE#         43
  C:0876H         LINE#         45
  C:08A4H         LINE#         46
  C:08BAH         LINE#         47
  C:08BAH         LINE#         49
  C:0909H         LINE#         50
  C:0909H         LINE#         51
  C:0921H         LINE#         52
  C:0921H         LINE#         54
  C:0983H         LINE#         55
  C:09B1H         LINE#         57
  C:09C7H         LINE#         59
  C:09C9H         LINE#         60
  -------         ENDPROC       _QUEUE_PUSH
  -------         PROC          _QUEUE_GET
  X:00E8H         SYMBOL        q
  X:00EBH         SYMBOL        buffer
  C:0B36H         LINE#         66
  C:0B41H         LINE#         67
BL51 BANKED LINKER/LOCATER V6.22.2.0                                                  05/15/2021  18:02:00  PAGE 33


  C:0B41H         LINE#         68
  C:0B55H         LINE#         69
  C:0B55H         LINE#         70
  C:0BA4H         LINE#         71
  C:0BA4H         LINE#         72
  C:0BBCH         LINE#         73
  C:0BBCH         LINE#         75
  C:0C1EH         LINE#         76
  C:0C4CH         LINE#         77
  C:0C62H         LINE#         79
  C:0C65H         LINE#         80
  C:0C65H         LINE#         82
  C:0C67H         LINE#         83
  -------         ENDPROC       _QUEUE_GET
  -------         PROC          _QUEUE_EMPTY
  X:0156H         SYMBOL        q
  C:1994H         LINE#         89
  C:199FH         LINE#         90
  C:199FH         LINE#         91
  C:19B7H         LINE#         92
  C:19B7H         LINE#         93
  C:19BAH         LINE#         94
  C:19BAH         LINE#         95
  C:19BCH         LINE#         96
  -------         ENDPROC       _QUEUE_EMPTY
  -------         PROC          _QUEUE_COUNT
  X:0159H         SYMBOL        q
  C:1A49H         LINE#         102
  C:1A54H         LINE#         103
  C:1A54H         LINE#         104
  C:1A69H         LINE#         105
  -------         ENDPROC       _QUEUE_COUNT
  -------         ENDMOD        QUEUE

  -------         MODULE        XOR
  C:0000H         SYMBOL        _ICE_DUMMY_
  C:14ABH         PUBLIC        _XOR_Caculator
  D:0080H         PUBLIC        P0
  D:0090H         PUBLIC        P1
  D:00A0H         PUBLIC        P2
  D:00B0H         PUBLIC        P3
  D:00D8H         PUBLIC        PWMCON0
  D:00A8H         PUBLIC        IE
  D:00B8H         PUBLIC        IP
  D:0098H         PUBLIC        SCON
  D:0088H         PUBLIC        TCON
  D:00F8H         PUBLIC        SCON_1
  D:00E8H         PUBLIC        ADCCON0
  D:00C0H         PUBLIC        I2CON
  D:00C8H         PUBLIC        T2CON
  D:00D0H         PUBLIC        PSW
  -------         PROC          _XOR_CACULATOR
  X:00C8H         SYMBOL        buffer
  X:00CBH         SYMBOL        ofset
  X:00CCH         SYMBOL        length
  -------         DO            
  X:00CEH         SYMBOL        result
BL51 BANKED LINKER/LOCATER V6.22.2.0                                                  05/15/2021  18:02:00  PAGE 34


  X:00CFH         SYMBOL        i
  -------         ENDDO         
  C:14ABH         LINE#         17
  C:14BBH         LINE#         18
  C:14BBH         LINE#         19
  C:14C0H         LINE#         20
  C:14C5H         LINE#         21
  C:14E5H         LINE#         22
  C:14E5H         LINE#         23
  C:150BH         LINE#         24
  C:1513H         LINE#         25
  C:1518H         LINE#         26
  -------         ENDPROC       _XOR_CACULATOR
  -------         ENDMOD        XOR

  -------         MODULE        ?C?FCAST
  C:0030H         PUBLIC        ?C?FCASTC
  C:002BH         PUBLIC        ?C?FCASTI
  C:0026H         PUBLIC        ?C?FCASTL
  -------         ENDMOD        ?C?FCAST

  -------         MODULE        ?C?CASTF
  C:0064H         PUBLIC        ?C?CASTF
  -------         ENDMOD        ?C?CASTF

  -------         MODULE        ?C?COPY
  C:016BH         PUBLIC        ?C?COPY
  -------         ENDMOD        ?C?COPY

  -------         MODULE        ?C?CLDPTR
  C:0191H         PUBLIC        ?C?CLDPTR
  -------         ENDMOD        ?C?CLDPTR

  -------         MODULE        ?C?CLDOPTR
  C:01AAH         PUBLIC        ?C?CLDOPTR
  -------         ENDMOD        ?C?CLDOPTR

  -------         MODULE        ?C?CILDOPTR
  C:01D7H         PUBLIC        ?C?CILDOPTR
  -------         ENDMOD        ?C?CILDOPTR

  -------         MODULE        ?C?CSTOPTR
  C:020AH         PUBLIC        ?C?CSTOPTR
  -------         ENDMOD        ?C?CSTOPTR

  -------         MODULE        ?C?IMUL
  C:022CH         PUBLIC        ?C?IMUL
  -------         ENDMOD        ?C?IMUL

  -------         MODULE        ?C?UIDIV
  C:023EH         PUBLIC        ?C?UIDIV
  -------         ENDMOD        ?C?UIDIV

  -------         MODULE        ?C?ILDIX
  C:0293H         PUBLIC        ?C?ILDIX
  -------         ENDMOD        ?C?ILDIX

BL51 BANKED LINKER/LOCATER V6.22.2.0                                                  05/15/2021  18:02:00  PAGE 35


  -------         MODULE        ?C?ILDOPTR
  C:02A9H         PUBLIC        ?C?ILDOPTR
  -------         ENDMOD        ?C?ILDOPTR

  -------         MODULE        ?C?IILDOPTR
  C:02E1H         PUBLIC        ?C?IILDOPTR
  -------         ENDMOD        ?C?IILDOPTR

  -------         MODULE        ?C?ISTOPTR
  C:032EH         PUBLIC        ?C?ISTOPTR
  -------         ENDMOD        ?C?ISTOPTR

  -------         MODULE        ?C?ULDIV
  C:0397H         PUBLIC        ?C?ULDIV
  -------         ENDMOD        ?C?ULDIV

  -------         MODULE        ?C?LNEG
  C:0429H         PUBLIC        ?C?LNEG
  -------         ENDMOD        ?C?LNEG

  -------         MODULE        ?C?ULCMP
  C:0437H         PUBLIC        ?C?ULCMP
  -------         ENDMOD        ?C?ULCMP

  -------         MODULE        ?C?ULSHR
  C:0448H         PUBLIC        ?C?ULSHR
  -------         ENDMOD        ?C?ULSHR

  -------         MODULE        ?C?LSTXDATA
  C:045BH         PUBLIC        ?C?LSTXDATA
  -------         ENDMOD        ?C?LSTXDATA

  -------         MODULE        ?C?LSTKXDATA
  C:0467H         PUBLIC        ?C?LSTKXDATA
  -------         ENDMOD        ?C?LSTKXDATA

  -------         MODULE        ?C?PLDPTR
  C:0498H         PUBLIC        ?C?PLDPTR
  -------         ENDMOD        ?C?PLDPTR

  -------         MODULE        ?C?PSTPTR
  C:04B8H         PUBLIC        ?C?PSTPTR
  -------         ENDMOD        ?C?PSTPTR

  -------         MODULE        ?C?CCASE
  C:0507H         PUBLIC        ?C?CCASE
  -------         ENDMOD        ?C?CCASE

  -------         MODULE        ?C?ICALL
  C:052DH         PUBLIC        ?C?ICALL
  C:0531H         PUBLIC        ?C?ICALL2
  -------         ENDMOD        ?C?ICALL

  -------         MODULE        ?C?IILDX
  C:0533H         PUBLIC        ?C?IILDX
  -------         ENDMOD        ?C?IILDX

BL51 BANKED LINKER/LOCATER V6.22.2.0                                                  05/15/2021  18:02:00  PAGE 36


  -------         MODULE        ?C?PLDIDATA
  C:0549H         PUBLIC        ?C?PLDIDATA
  -------         ENDMOD        ?C?PLDIDATA

  -------         MODULE        ?C?PSTIDATA
  C:0552H         PUBLIC        ?C?PSTIDATA
  -------         ENDMOD        ?C?PSTIDATA

  -------         MODULE        ?C?PLDXDATA
  C:055BH         PUBLIC        ?C?PLDXDATA
  -------         ENDMOD        ?C?PLDXDATA

  -------         MODULE        ?C?PSTXDATA
  C:0564H         PUBLIC        ?C?PSTXDATA
  -------         ENDMOD        ?C?PSTXDATA

  -------         MODULE        ?C?PLDPDATA
  C:056DH         PUBLIC        ?C?PLDPDATA
  -------         ENDMOD        ?C?PLDPDATA

  -------         MODULE        ?C?PSTPDATA
  C:0576H         PUBLIC        ?C?PSTPDATA
  -------         ENDMOD        ?C?PSTPDATA

  -------         MODULE        ?C?PLDCODE
  C:057FH         PUBLIC        ?C?PLDCODE
  -------         ENDMOD        ?C?PLDCODE

*** WARNING L16: UNCALLED SEGMENT, IGNORED FOR OVERLAY PROCESS
    SEGMENT: ?PR?FUNCHANDLE_CURRENTDUTY?MAIN_FUNC

*** WARNING L16: UNCALLED SEGMENT, IGNORED FOR OVERLAY PROCESS
    SEGMENT: ?PR?FUNCHANDLE_RESETDEVICEFLAG?MAIN_FUNC

*** WARNING L16: UNCALLED SEGMENT, IGNORED FOR OVERLAY PROCESS
    SEGMENT: ?PR?MAIN_PROC?MAIN_INIT

*** WARNING L16: UNCALLED SEGMENT, IGNORED FOR OVERLAY PROCESS
    SEGMENT: ?PR?_FLOOR_UPORDOWN?FLOOR

*** WARNING L16: UNCALLED SEGMENT, IGNORED FOR OVERLAY PROCESS
    SEGMENT: ?PR?INIT_ADC?ADC

*** WARNING L16: UNCALLED SEGMENT, IGNORED FOR OVERLAY PROCESS
    SEGMENT: ?PR?GPIO_SOFT_UART_INIT?GPIO

*** WARNING L16: UNCALLED SEGMENT, IGNORED FOR OVERLAY PROCESS
    SEGMENT: ?PR?_PWM_STOP?PWM

*** WARNING L16: UNCALLED SEGMENT, IGNORED FOR OVERLAY PROCESS
    SEGMENT: ?PR?_PWM_START?PWM

*** WARNING L16: UNCALLED SEGMENT, IGNORED FOR OVERLAY PROCESS
    SEGMENT: ?PR?_SOFT_UART_INIT?SOFT_UART

*** WARNING L16: UNCALLED SEGMENT, IGNORED FOR OVERLAY PROCESS
    SEGMENT: ?PR?_SOFT_UART_SENDBYTE?SOFT_UART
BL51 BANKED LINKER/LOCATER V6.22.2.0                                                  05/15/2021  18:02:00  PAGE 37



*** WARNING L16: UNCALLED SEGMENT, IGNORED FOR OVERLAY PROCESS
    SEGMENT: ?PR?_SOFT_UART_SENDDATA?SOFT_UART

*** WARNING L16: UNCALLED SEGMENT, IGNORED FOR OVERLAY PROCESS
    SEGMENT: ?PR?MODIFY_HIRC166?UART

*** WARNING L1: UNRESOLVED EXTERNAL SYMBOL
    SYMBOL:  BOTLIMITFLOOR
    MODULE:  .\Objects\floor.obj (FLOOR)

*** WARNING L1: UNRESOLVED EXTERNAL SYMBOL
    SYMBOL:  TOPLIMITFLOOR
    MODULE:  .\Objects\floor.obj (FLOOR)

*** WARNING L2: REFERENCE MADE TO UNRESOLVED EXTERNAL
    SYMBOL:  BOTLIMITFLOOR
    MODULE:  .\Objects\floor.obj (FLOOR)
    ADDRESS: 135CH

*** WARNING L2: REFERENCE MADE TO UNRESOLVED EXTERNAL
    SYMBOL:  TOPLIMITFLOOR
    MODULE:  .\Objects\floor.obj (FLOOR)
    ADDRESS: 1364H

*** WARNING L2: REFERENCE MADE TO UNRESOLVED EXTERNAL
    SYMBOL:  BOTLIMITFLOOR
    MODULE:  .\Objects\floor.obj (FLOOR)
    ADDRESS: 1385H

Program Size: data=9.0 xdata=368 code=7380
LINK/LOCATE RUN COMPLETE.  17 WARNING(S),  0 ERROR(S)
