BL51 BANKED LINKER/LOCATER V6.22.2.0                                                    03/13/2021  16:33:25  PAGE 1


BL51 BANKED LINKER/LOCATER V6.22.2.0, INVOKED BY:
C:\KEIL_V5\C51\BIN\BL51.EXE .\Objects\STARTUP.obj, .\Objects\main.obj, .\Objects\motor.obj, .\Objects\relay.obj, .\Objec
>> ts\uart.obj, .\Objects\delay.obj, .\Objects\pwm.obj, .\Objects\timer.obj, .\Objects\queue.obj TO .\Objects\motor_test
>>  PRINT (.\Listings\motor_test.m51) RAMSIZE (256) CODE (0X0000-0X47FF)


MEMORY MODEL: SMALL WITH FLOATING POINT ARITHMETIC


INPUT MODULES INCLUDED:
  .\Objects\STARTUP.obj (?C_STARTUP)
  .\Objects\main.obj (MAIN)
  .\Objects\motor.obj (MOTOR)
  .\Objects\relay.obj (RELAY)
  .\Objects\uart.obj (UART)
  .\Objects\delay.obj (DELAY)
  .\Objects\pwm.obj (PWM)
  .\Objects\timer.obj (TIMER)
  .\Objects\queue.obj (QUEUE)
  C:\KEIL_V5\C51\LIB\C51FPS.LIB (?C?FPADD)
  C:\KEIL_V5\C51\LIB\C51FPS.LIB (?C?FPMUL)
  C:\KEIL_V5\C51\LIB\C51FPS.LIB (?C?FPDIV)
  C:\KEIL_V5\C51\LIB\C51FPS.LIB (?C?FCAST)
  C:\KEIL_V5\C51\LIB\C51FPS.LIB (?C?CASTF)
  C:\KEIL_V5\C51\LIB\C51FPS.LIB (?C?FPGETOPN)
  C:\KEIL_V5\C51\LIB\C51S.LIB (?C_INIT)
  C:\KEIL_V5\C51\LIB\C51S.LIB (?C?COPY)
  C:\KEIL_V5\C51\LIB\C51S.LIB (?C?CLDOPTR)
  C:\KEIL_V5\C51\LIB\C51S.LIB (?C?CILDOPTR)
  C:\KEIL_V5\C51\LIB\C51S.LIB (?C?CSTOPTR)
  C:\KEIL_V5\C51\LIB\C51S.LIB (?C?ILDOPTR)
  C:\KEIL_V5\C51\LIB\C51S.LIB (?C?IILDOPTR)
  C:\KEIL_V5\C51\LIB\C51S.LIB (?C?ISTOPTR)
  C:\KEIL_V5\C51\LIB\C51S.LIB (?C?ULDIV)
  C:\KEIL_V5\C51\LIB\C51S.LIB (?C?LNEG)
  C:\KEIL_V5\C51\LIB\C51S.LIB (?C?ULSHR)
  C:\KEIL_V5\C51\LIB\C51S.LIB (?C?PLDPTR)
  C:\KEIL_V5\C51\LIB\C51S.LIB (?C?PSTPTR)
  C:\KEIL_V5\C51\LIB\C51S.LIB (?C?CCASE)
  C:\KEIL_V5\C51\LIB\C51S.LIB (?C?ICALL)
  C:\KEIL_V5\C51\LIB\C51S.LIB (?C?IILDX)
  C:\KEIL_V5\C51\LIB\C51S.LIB (?C?PLDIDATA)
  C:\KEIL_V5\C51\LIB\C51S.LIB (?C?PSTIDATA)
  C:\KEIL_V5\C51\LIB\C51S.LIB (?C?PLDXDATA)
  C:\KEIL_V5\C51\LIB\C51S.LIB (?C?PSTXDATA)
  C:\KEIL_V5\C51\LIB\C51S.LIB (?C?PLDPDATA)
  C:\KEIL_V5\C51\LIB\C51S.LIB (?C?PSTPDATA)
  C:\KEIL_V5\C51\LIB\C51S.LIB (?C?PLDCODE)


LINK MAP OF MODULE:  .\Objects\motor_test (?C_STARTUP)


            TYPE    BASE      LENGTH    RELOCATION   SEGMENT NAME
            -----------------------------------------------------

            * * * * * * *   D A T A   M E M O R Y   * * * * * * *
            REG     0000H     0008H     ABSOLUTE     "REG BANK 0"
BL51 BANKED LINKER/LOCATER V6.22.2.0                                                  03/13/2021  16:33:25  PAGE 2


            DATA    0008H     0013H     UNIT         ?DT?MAIN
            DATA    001BH     0008H     UNIT         ?DT?_QUEUE_INIT?QUEUE
            DATA    0023H     0006H     UNIT         ?DT?_MOTOR_SETSPEED?MOTOR
            DATA    0029H     0006H     UNIT         ?DT?_QUEUE_PUSH?QUEUE
            DATA    002FH     0006H     UNIT         ?DT?_QUEUE_GET?QUEUE
            DATA    0035H     0005H     UNIT         ?DT?_MOTOR_GETCURRENTSPEED?MOTOR
            DATA    003AH     0005H     UNIT         ?DT?_UART_SENDDATA?UART
            DATA    003FH     0004H     UNIT         ?DT?_UART_INIT?UART
            DATA    0043H     0004H     UNIT         ?DT?_DELAY_US?DELAY
            DATA    0047H     0004H     UNIT         ?DT?_PWM_CREATEDPERIODDUTY?PWM
            DATA    004BH     0004H     UNIT         ?DT?_PWM_STOP?PWM
            DATA    004FH     0004H     UNIT         ?DT?_PWM_START?PWM
            DATA    0053H     0003H     UNIT         ?DT?MAIN?MAIN
            DATA    0056H     0003H     UNIT         ?DT?_UART_CALLBACKINIT?UART
            DATA    0059H     0003H     UNIT         ?DT?UART
            DATA    005CH     0003H     UNIT         ?DT?_TIMER_CALLBACKINIT?TIMER
            DATA    005FH     0003H     UNIT         ?DT?TIMER
            DATA    0062H     0003H     UNIT         ?DT?_QUEUE_EMPTY?QUEUE
            DATA    0065H     0003H     UNIT         ?DT?_QUEUE_COUNT?QUEUE
            DATA    0068H     0002H     UNIT         ?DT?_MOTOR_INIT?MOTOR
            DATA    006AH     0002H     UNIT         ?DT?_UART_SENDBYTE?UART
            DATA    006CH     0002H     UNIT         ?DT?_DELAY_MS?DELAY
            DATA    006EH     0001H     UNIT         ?DT?_RELAY_AC?RELAY
            DATA    006FH     0001H     UNIT         ?DT?UART_REVDATA?UART
            DATA    0070H     0001H     UNIT         ?DT?_TIMER_INIT?TIMER
            DATA    0071H     0001H     UNIT         ?DT?_TIMER_ENABLE?TIMER
            DATA    0072H     0001H     UNIT         ?DT?_TIMER_DISABLE?TIMER
            IDATA   0073H     0001H     UNIT         ?STACK

            * * * * * * *  X D A T A   M E M O R Y  * * * * * * *
            XDATA   0000H     0004H     UNIT         ?XD?UART

            * * * * * * *   C O D E   M E M O R Y   * * * * * * *
            CODE    0000H     0003H     ABSOLUTE     
            CODE    0003H     0006H     UNIT         ?PR?UART_REVDATA?UART
                    0009H     0002H                  *** GAP ***
            CODE    000BH     0003H     ABSOLUTE     
            CODE    000EH     0014H     UNIT         ?PR?_RELAY_AC?RELAY
                    0022H     0001H                  *** GAP ***
            CODE    0023H     0003H     ABSOLUTE     
            CODE    0026H     0769H     UNIT         ?C?LIB_CODE
            CODE    078FH     0188H     UNIT         ?PR?_QUEUE_PUSH?QUEUE
            CODE    0917H     00F1H     UNIT         ?PR?_QUEUE_GET?QUEUE
            CODE    0A08H     0094H     UNIT         ?PR?_UART_INIT?UART
            CODE    0A9CH     0094H     UNIT         ?PR?MODIFY_HIRC166?UART
            CODE    0B30H     008CH     UNIT         ?C_C51STARTUP
            CODE    0BBCH     0074H     UNIT         ?PR?_QUEUE_INIT?QUEUE
            CODE    0C30H     0070H     UNIT         ?PR?SERIALPORT0_ISR?UART
            CODE    0CA0H     006DH     UNIT         ?PR?_MOTOR_SETSPEED?MOTOR
            CODE    0D0DH     0066H     UNIT         ?PR?TIMER0OVERFLOW_ISR?TIMER
            CODE    0D73H     0045H     UNIT         ?PR?_MOTOR_GETCURRENTSPEED?MOTOR
            CODE    0DB8H     003FH     UNIT         ?PR?MAIN?MAIN
            CODE    0DF7H     0032H     UNIT         ?PR?_PWM_START?PWM
            CODE    0E29H     0031H     UNIT         ?PR?_PWM_STOP?PWM
            CODE    0E5AH     002BH     UNIT         ?PR?_UART_SENDDATA?UART
            CODE    0E85H     0029H     UNIT         ?PR?_TIMER_INIT?TIMER
            CODE    0EAEH     0027H     UNIT         ?PR?HANDLEUART?MAIN
BL51 BANKED LINKER/LOCATER V6.22.2.0                                                  03/13/2021  16:33:25  PAGE 3


            CODE    0ED5H     0025H     UNIT         ?PR?_DELAY_US?DELAY
            CODE    0EFAH     0025H     UNIT         ?PR?_TIMER_ENABLE?TIMER
            CODE    0F1FH     0025H     UNIT         ?PR?_TIMER_DISABLE?TIMER
            CODE    0F44H     0021H     UNIT         ?PR?_PWM_CREATEDPERIODDUTY?PWM
            CODE    0F65H     001FH     UNIT         ?PR?_QUEUE_EMPTY?QUEUE
            CODE    0F84H     001CH     UNIT         ?PR?RELAY_CONFIG?RELAY
            CODE    0FA0H     001CH     UNIT         ?PR?_DELAY_MS?DELAY
            CODE    0FBCH     0017H     UNIT         ?PR?_QUEUE_COUNT?QUEUE
            CODE    0FD3H     0013H     UNIT         ?PR?_UART_CALLBACKINIT?UART
            CODE    0FE6H     0013H     UNIT         ?PR?_TIMER_CALLBACKINIT?TIMER
            CODE    0FF9H     0011H     UNIT         ?PR?_UART_SENDBYTE?UART
            CODE    100AH     0010H     UNIT         ?PR?PWM_INIT?PWM
            CODE    101AH     000FH     UNIT         ?PR?_MOTOR_INIT?MOTOR
            CODE    1029H     000EH     UNIT         ?PR?MOTOR_CONFIG?MOTOR
            CODE    1037H     000DH     UNIT         ?C_INITSEG
            CODE    1044H     0004H     UNIT         ?PR?RELAY_UP?RELAY
            CODE    1048H     0004H     UNIT         ?PR?RELAY_UPRESET?RELAY
            CODE    104CH     0004H     UNIT         ?PR?RELAY_DOWN?RELAY
            CODE    1050H     0004H     UNIT         ?PR?RELAY_DOWNRESET?RELAY
            CODE    1054H     0003H     UNIT         ?PR?UART_ENABLE?UART
            CODE    1057H     0003H     UNIT         ?PR?UART_DISABLE?UART



OVERLAY MAP OF MODULE:   .\Objects\motor_test (?C_STARTUP)


SEGMENT
  +--> CALLED SEGMENT
---------------------
?C_C51STARTUP
  +--> ?PR?MAIN?MAIN
  +--> ?C_INITSEG

?PR?MAIN?MAIN
  +--> ?PR?MOTOR_CONFIG?MOTOR
  +--> ?PR?_DELAY_MS?DELAY
  +--> ?PR?RELAY_CONFIG?RELAY
  +--> ?PR?_RELAY_AC?RELAY
  +--> ?PR?_MOTOR_INIT?MOTOR
  +--> ?PR?_MOTOR_SETSPEED?MOTOR

?PR?MOTOR_CONFIG?MOTOR
  +--> ?PR?_DELAY_MS?DELAY

?PR?_DELAY_MS?DELAY
  +--> ?PR?_DELAY_US?DELAY

?PR?_MOTOR_INIT?MOTOR
  +--> ?PR?PWM_INIT?PWM
  +--> ?PR?_PWM_CREATEDPERIODDUTY?PWM

?PR?_MOTOR_SETSPEED?MOTOR
  +--> ?PR?_PWM_CREATEDPERIODDUTY?PWM
  +--> ?PR?_DELAY_MS?DELAY


BL51 BANKED LINKER/LOCATER V6.22.2.0                                                  03/13/2021  16:33:25  PAGE 4



SYMBOL TABLE OF MODULE:  .\Objects\motor_test (?C_STARTUP)

  VALUE           TYPE          NAME
  ----------------------------------

  -------         MODULE        ?C_STARTUP
  C:0B30H         SEGMENT       ?C_C51STARTUP
  I:0073H         SEGMENT       ?STACK
  C:0000H         PUBLIC        ?C_STARTUP
  D:00E0H         SYMBOL        ACC
  D:00F0H         SYMBOL        B
  D:0083H         SYMBOL        DPH
  D:0082H         SYMBOL        DPL
  N:0000H         SYMBOL        IBPSTACK
  N:0100H         SYMBOL        IBPSTACKTOP
  N:0080H         SYMBOL        IDATALEN
  C:0B33H         SYMBOL        IDATALOOP
  N:0000H         SYMBOL        PBPSTACK
  N:0100H         SYMBOL        PBPSTACKTOP
  N:0000H         SYMBOL        PDATALEN
  N:0000H         SYMBOL        PDATASTART
  N:0000H         SYMBOL        PPAGE
  N:0000H         SYMBOL        PPAGEENABLE
  D:00A0H         SYMBOL        PPAGE_SFR
  D:0081H         SYMBOL        SP
  C:0B30H         SYMBOL        STARTUP1
  N:0000H         SYMBOL        XBPSTACK
  N:0000H         SYMBOL        XBPSTACKTOP
  N:0000H         SYMBOL        XDATALEN
  N:0000H         SYMBOL        XDATASTART
  C:0000H         LINE#         126
  C:0B30H         LINE#         133
  C:0B32H         LINE#         134
  C:0B33H         LINE#         135
  C:0B34H         LINE#         136
  C:0B36H         LINE#         185
  C:0B39H         LINE#         196
  -------         ENDMOD        ?C_STARTUP

  -------         MODULE        MAIN
  C:0000H         SYMBOL        _ICE_DUMMY_
  D:0080H         PUBLIC        P0
  D:0090H         PUBLIC        P1
  D:00A0H         PUBLIC        P2
  D:00B0H         PUBLIC        P3
  D:00D8H         PUBLIC        PWMCON0
  D:00A8H         PUBLIC        IE
  C:0EAEH         PUBLIC        handleUart
  D:00B8H         PUBLIC        IP
  C:0DB8H         PUBLIC        main
  D:0009H         PUBLIC        currentDuty
  D:0098H         PUBLIC        SCON
  D:0088H         PUBLIC        TCON
  D:00F8H         PUBLIC        SCON_1
  D:000BH         PUBLIC        CommandBuff
  D:0011H         PUBLIC        CommandQueue
BL51 BANKED LINKER/LOCATER V6.22.2.0                                                  03/13/2021  16:33:25  PAGE 5


  D:00E8H         PUBLIC        ADCCON0
  D:00C0H         PUBLIC        I2CON
  D:00C8H         PUBLIC        T2CON
  D:00D0H         PUBLIC        PSW
  -------         PROC          HANDLEUART
  -------         DO            
  D:0008H         SYMBOL        revByte
  -------         ENDDO         
  C:0EAEH         LINE#         46
  C:0EAEH         LINE#         47
  C:0EAEH         LINE#         49
  C:0EB3H         LINE#         50
  C:0ED4H         LINE#         51
  -------         ENDPROC       HANDLEUART
  -------         PROC          MAIN
  -------         DO            
  D:0053H         SYMBOL        buffer
  D:0054H         SYMBOL        currentDuty
  -------         ENDDO         
  C:0DB8H         LINE#         53
  C:0DB8H         LINE#         54
  C:0DB8H         LINE#         56
  C:0DBEH         LINE#         59
  C:0DC1H         LINE#         60
  C:0DC8H         LINE#         61
  C:0DCBH         LINE#         62
  C:0DD0H         LINE#         63
  C:0DD7H         LINE#         64
  C:0DDEH         LINE#         74
  C:0DDEH         LINE#         75
  C:0DDEH         LINE#         77
  C:0DE9H         LINE#         78
  C:0DF4H         LINE#         110
  -------         ENDPROC       MAIN
  -------         ENDMOD        MAIN

  -------         MODULE        MOTOR
  C:0000H         SYMBOL        _ICE_DUMMY_
  D:00B3H         PUBLIC        P1M1
  D:0080H         PUBLIC        P0
  D:00B4H         PUBLIC        P1M2
  D:0090H         PUBLIC        P1
  D:00A0H         PUBLIC        P2
  D:00B0H         PUBLIC        P3
  D:00D8H         PUBLIC        PWMCON0
  C:101AH         PUBLIC        _MOTOR_Init
  D:00A8H         PUBLIC        IE
  C:0CA0H         PUBLIC        _MOTOR_SetSpeed
  D:00B8H         PUBLIC        IP
  D:0098H         PUBLIC        SCON
  D:0088H         PUBLIC        TCON
  D:00F8H         PUBLIC        SCON_1
  C:1029H         PUBLIC        MOTOR_Config
  D:00E8H         PUBLIC        ADCCON0
  D:00C0H         PUBLIC        I2CON
  D:00C8H         PUBLIC        T2CON
  C:0D73H         PUBLIC        _MOTOR_GetCurrentSpeed
BL51 BANKED LINKER/LOCATER V6.22.2.0                                                  03/13/2021  16:33:25  PAGE 6


  D:00D0H         PUBLIC        PSW
  -------         PROC          MOTOR_CONFIG
  C:1029H         LINE#         24
  C:1029H         LINE#         25
  C:1029H         LINE#         26
  C:102FH         LINE#         27
  C:1036H         LINE#         28
  -------         ENDPROC       MOTOR_CONFIG
  -------         PROC          _MOTOR_INIT
  D:0068H         SYMBOL        defaultDuty
  C:101AH         LINE#         34
  C:101EH         LINE#         35
  C:101EH         LINE#         36
  C:1021H         LINE#         37
  C:1028H         LINE#         38
  -------         ENDPROC       _MOTOR_INIT
  -------         PROC          _MOTOR_GETCURRENTSPEED
  D:0035H         SYMBOL        revSpeed
  -------         DO            
  D:0036H         SYMBOL        x
  -------         ENDDO         
  C:0D73H         LINE#         44
  C:0D75H         LINE#         45
  C:0D75H         LINE#         46
  C:0D8EH         LINE#         47
  C:0DB7H         LINE#         48
  -------         ENDPROC       _MOTOR_GETCURRENTSPEED
  -------         PROC          _MOTOR_SETSPEED
  D:0023H         SYMBOL        currentDuty
  D:0025H         SYMBOL        desireDuty
  -------         DO            
  D:0027H         SYMBOL        i
  -------         ENDDO         
  C:0CA0H         LINE#         54
  C:0CA8H         LINE#         55
  C:0CA8H         LINE#         56
  C:0CAEH         LINE#         57
  C:0CB9H         LINE#         58
  C:0CB9H         LINE#         59
  C:0CCAH         LINE#         60
  C:0CCAH         LINE#         61
  C:0CD1H         LINE#         62
  C:0CD8H         LINE#         63
  C:0CE2H         LINE#         64
  C:0CE3H         LINE#         65
  C:0CE3H         LINE#         66
  C:0CF4H         LINE#         67
  C:0CF4H         LINE#         68
  C:0CFBH         LINE#         69
  C:0D02H         LINE#         70
  C:0D0CH         LINE#         71
  C:0D0CH         LINE#         72
  -------         ENDPROC       _MOTOR_SETSPEED
  -------         ENDMOD        MOTOR

  -------         MODULE        RELAY
  C:0000H         SYMBOL        _ICE_DUMMY_
BL51 BANKED LINKER/LOCATER V6.22.2.0                                                  03/13/2021  16:33:25  PAGE 7


  D:00B1H         PUBLIC        P0M1
  D:00B3H         PUBLIC        P1M1
  D:00B2H         PUBLIC        P0M2
  D:0080H         PUBLIC        P0
  C:1050H         PUBLIC        RELAY_DownReset
  D:00B4H         PUBLIC        P1M2
  D:0090H         PUBLIC        P1
  D:00A0H         PUBLIC        P2
  D:00B0H         PUBLIC        P3
  D:00D8H         PUBLIC        PWMCON0
  D:00A8H         PUBLIC        IE
  D:00B8H         PUBLIC        IP
  C:1044H         PUBLIC        RELAY_Up
  C:1048H         PUBLIC        RELAY_UpReset
  D:0098H         PUBLIC        SCON
  D:0088H         PUBLIC        TCON
  C:0F84H         PUBLIC        RELAY_Config
  D:00F8H         PUBLIC        SCON_1
  D:00E8H         PUBLIC        ADCCON0
  D:00C0H         PUBLIC        I2CON
  C:000EH         PUBLIC        _RELAY_AC
  D:00C8H         PUBLIC        T2CON
  C:104CH         PUBLIC        RELAY_Down
  D:00D0H         PUBLIC        PSW
  -------         PROC          RELAY_CONFIG
  C:0F84H         LINE#         22
  C:0F84H         LINE#         23
  C:0F84H         LINE#         24
  C:0F8AH         LINE#         25
  C:0F90H         LINE#         26
  C:0F96H         LINE#         27
  C:0F99H         LINE#         28
  C:0F9CH         LINE#         29
  C:0F9FH         LINE#         30
  -------         ENDPROC       RELAY_CONFIG
  -------         PROC          _RELAY_AC
  D:006EH         SYMBOL        state
  C:000EH         LINE#         36
  C:0010H         LINE#         37
  C:0010H         LINE#         38
  C:001AH         LINE#         39
  C:001AH         LINE#         40
  C:001DH         LINE#         41
  C:001EH         LINE#         42
  C:001EH         LINE#         43
  C:0021H         LINE#         44
  C:0021H         LINE#         46
  -------         ENDPROC       _RELAY_AC
  -------         PROC          RELAY_UP
  C:1044H         LINE#         53
  C:1044H         LINE#         54
  C:1044H         LINE#         55
  C:1047H         LINE#         56
  -------         ENDPROC       RELAY_UP
  -------         PROC          RELAY_UPRESET
  C:1048H         LINE#         63
  C:1048H         LINE#         64
BL51 BANKED LINKER/LOCATER V6.22.2.0                                                  03/13/2021  16:33:25  PAGE 8


  C:1048H         LINE#         65
  C:104BH         LINE#         66
  -------         ENDPROC       RELAY_UPRESET
  -------         PROC          RELAY_DOWN
  C:104CH         LINE#         73
  C:104CH         LINE#         74
  C:104CH         LINE#         75
  C:104FH         LINE#         76
  -------         ENDPROC       RELAY_DOWN
  -------         PROC          RELAY_DOWNRESET
  C:1050H         LINE#         83
  C:1050H         LINE#         84
  C:1050H         LINE#         85
  C:1053H         LINE#         86
  -------         ENDPROC       RELAY_DOWNRESET
  -------         ENDMOD        RELAY

  -------         MODULE        UART
  C:0000H         SYMBOL        _ICE_DUMMY_
  D:00B1H         PUBLIC        P0M1
  D:00B2H         PUBLIC        P0M2
  D:0080H         PUBLIC        P0
  D:0090H         PUBLIC        P1
  D:0059H         PUBLIC        p_uartCallBack
  D:00A0H         PUBLIC        P2
  D:00B0H         PUBLIC        P3
  D:0084H         PUBLIC        RCTRIM0
  D:0085H         PUBLIC        RCTRIM1
  D:00D8H         PUBLIC        PWMCON0
  C:0C30H         PUBLIC        SerialPort0_ISR
  D:00A8H         PUBLIC        IE
  D:00C7H         PUBLIC        TA
  B:00A8H.4       PUBLIC        ES
  D:00B8H         PUBLIC        IP
  B:0098H.0       PUBLIC        RI
  B:0098H.1       PUBLIC        TI
  C:0FD3H         PUBLIC        _UART_CallBackInit
  C:0E5AH         PUBLIC        _UART_SendData
  D:0099H         PUBLIC        SBUF
  D:0087H         PUBLIC        PCON
  C:0A08H         PUBLIC        _UART_Init
  D:0098H         PUBLIC        SCON
  D:0088H         PUBLIC        TCON
  C:0FF9H         PUBLIC        _UART_SendByte
  D:00F8H         PUBLIC        SCON_1
  C:0003H         PUBLIC        UART_RevData
  D:00C6H         PUBLIC        RH3
  C:0A9CH         PUBLIC        MODIFY_Hirc166
  D:00C5H         PUBLIC        RL3
  C:1057H         PUBLIC        UART_Disable
  D:00E8H         PUBLIC        ADCCON0
  D:00C0H         PUBLIC        I2CON
  D:00C8H         PUBLIC        T2CON
  C:1054H         PUBLIC        UART_Enable
  D:00C4H         PUBLIC        T3CON
  D:00D0H         PUBLIC        PSW
  -------         PROC          _UART_INIT
BL51 BANKED LINKER/LOCATER V6.22.2.0                                                  03/13/2021  16:33:25  PAGE 9


  D:003FH         SYMBOL        baudRate
  C:0A08H         LINE#         28
  C:0A10H         LINE#         29
  C:0A10H         LINE#         30
  C:0A16H         LINE#         31
  C:0A1CH         LINE#         34
  C:0A4DH         LINE#         35
  C:0A89H         LINE#         42
  C:0A8CH         LINE#         43
  C:0A8FH         LINE#         44
  C:0A92H         LINE#         45
  C:0A95H         LINE#         46
  C:0A98H         LINE#         47
  C:0A9BH         LINE#         48
  -------         ENDPROC       _UART_INIT
  -------         PROC          UART_ENABLE
  C:1054H         LINE#         56
  C:1054H         LINE#         57
  C:1054H         LINE#         58
  C:1056H         LINE#         59
  -------         ENDPROC       UART_ENABLE
  -------         PROC          UART_DISABLE
  C:1057H         LINE#         67
  C:1057H         LINE#         68
  C:1057H         LINE#         69
  C:1059H         LINE#         70
  -------         ENDPROC       UART_DISABLE
  -------         PROC          _UART_SENDBYTE
  D:006AH         SYMBOL        byte
  -------         DO            
  D:006BH         SYMBOL        byteReverse
  -------         ENDDO         
  C:0FF9H         LINE#         79
  C:0FFBH         LINE#         80
  C:0FFBH         LINE#         82
  C:0FFDH         LINE#         83
  C:1003H         LINE#         84
  C:1006H         LINE#         85
  C:1009H         LINE#         86
  -------         ENDPROC       _UART_SENDBYTE
  -------         PROC          _UART_SENDDATA
  D:003AH         SYMBOL        buff
  D:003DH         SYMBOL        length
  -------         DO            
  D:003EH         SYMBOL        i
  -------         ENDDO         
  C:0E5AH         LINE#         94
  C:0E62H         LINE#         95
  C:0E62H         LINE#         97
  C:0E6CH         LINE#         98
  C:0E6CH         LINE#         99
  C:0E80H         LINE#         100
  C:0E84H         LINE#         101
  -------         ENDPROC       _UART_SENDDATA
  -------         PROC          UART_REVDATA
  -------         DO            
  D:006FH         SYMBOL        dataRx
BL51 BANKED LINKER/LOCATER V6.22.2.0                                                  03/13/2021  16:33:25  PAGE 10


  -------         ENDDO         
  C:0003H         LINE#         109
  C:0003H         LINE#         110
  C:0003H         LINE#         112
  C:0006H         LINE#         113
  C:0008H         LINE#         114
  -------         ENDPROC       UART_REVDATA
  -------         PROC          MODIFY_HIRC166
  -------         DO            
  X:0000H         SYMBOL        hircmap0
  X:0001H         SYMBOL        hircmap1
  X:0002H         SYMBOL        trimvalue16bit
  -------         ENDDO         
  C:0A9CH         LINE#         122
  C:0A9CH         LINE#         123
  C:0A9CH         LINE#         127
  C:0AACH         LINE#         128
  C:0AACH         LINE#         129
  C:0AB2H         LINE#         130
  C:0AB8H         LINE#         131
  C:0ADFH         LINE#         132
  C:0AEDH         LINE#         133
  C:0AFEH         LINE#         134
  C:0B12H         LINE#         135
  C:0B15H         LINE#         136
  C:0B18H         LINE#         137
  C:0B1FH         LINE#         138
  C:0B22H         LINE#         139
  C:0B25H         LINE#         140
  C:0B2CH         LINE#         142
  C:0B2FH         LINE#         143
  C:0B2FH         LINE#         144
  -------         ENDPROC       MODIFY_HIRC166
  -------         PROC          _UART_CALLBACKINIT
  D:0056H         SYMBOL        uartCallBackFnc
  C:0FD3H         LINE#         152
  C:0FD9H         LINE#         153
  C:0FD9H         LINE#         154
  C:0FE5H         LINE#         155
  -------         ENDPROC       _UART_CALLBACKINIT
  -------         PROC          SERIALPORT0_ISR
  C:0C30H         LINE#         163
  C:0C4DH         LINE#         165
  C:0C50H         LINE#         166
  C:0C50H         LINE#         167
  C:0C52H         LINE#         168
  C:0C77H         LINE#         169
  C:0C77H         LINE#         170
  C:0C80H         LINE#         171
  C:0C80H         LINE#         172
  C:0C80H         LINE#         173
  C:0C83H         LINE#         174
  C:0C85H         LINE#         175
  -------         ENDPROC       SERIALPORT0_ISR
  -------         ENDMOD        UART

  -------         MODULE        DELAY
BL51 BANKED LINKER/LOCATER V6.22.2.0                                                  03/13/2021  16:33:25  PAGE 11


  C:0000H         SYMBOL        _ICE_DUMMY_
  D:0080H         PUBLIC        P0
  D:0090H         PUBLIC        P1
  D:00A0H         PUBLIC        P2
  D:00B0H         PUBLIC        P3
  D:00D8H         PUBLIC        PWMCON0
  D:00A8H         PUBLIC        IE
  D:00B8H         PUBLIC        IP
  D:0098H         PUBLIC        SCON
  D:0088H         PUBLIC        TCON
  D:00F8H         PUBLIC        SCON_1
  C:0FA0H         PUBLIC        _delay_ms
  D:00E8H         PUBLIC        ADCCON0
  C:0ED5H         PUBLIC        _delay_us
  D:00C0H         PUBLIC        I2CON
  D:00C8H         PUBLIC        T2CON
  D:00D0H         PUBLIC        PSW
  -------         PROC          _DELAY_MS
  D:006CH         SYMBOL        value
  C:0FA0H         LINE#         27
  C:0FA4H         LINE#         28
  C:0FA4H         LINE#         29
  C:0FAAH         LINE#         30
  C:0FAAH         LINE#         31
  C:0FB1H         LINE#         32
  C:0FB9H         LINE#         33
  C:0FBBH         LINE#         34
  -------         ENDPROC       _DELAY_MS
  -------         PROC          _DELAY_US
  D:0043H         SYMBOL        value
  -------         DO            
  D:0045H         SYMBOL        loops
  -------         ENDDO         
  C:0ED5H         LINE#         42
  C:0ED9H         LINE#         43
  C:0ED9H         LINE#         44
  C:0EE8H         LINE#         46
  C:0EEEH         LINE#         47
  C:0EEEH         LINE#         48
  C:0EEFH         LINE#         49
  C:0EF7H         LINE#         50
  C:0EF9H         LINE#         51
  -------         ENDPROC       _DELAY_US
  -------         ENDMOD        DELAY

  -------         MODULE        PWM
  C:0000H         SYMBOL        _ICE_DUMMY_
  D:0080H         PUBLIC        P0
  D:0090H         PUBLIC        P1
  D:00A0H         PUBLIC        P2
  D:00B0H         PUBLIC        P3
  D:00D8H         PUBLIC        PWMCON0
  D:00DFH         PUBLIC        PWMCON1
  D:00D1H         PUBLIC        PWMPH
  D:00A8H         PUBLIC        IE
  D:00D9H         PUBLIC        PWMPL
  D:00B8H         PUBLIC        IP
BL51 BANKED LINKER/LOCATER V6.22.2.0                                                  03/13/2021  16:33:25  PAGE 12


  C:0F44H         PUBLIC        _PWM_CreatedPeriodDuty
  D:0098H         PUBLIC        SCON
  D:0088H         PUBLIC        TCON
  D:00F8H         PUBLIC        SCON_1
  D:00E8H         PUBLIC        ADCCON0
  D:00C0H         PUBLIC        I2CON
  C:0DF7H         PUBLIC        _PWM_Start
  D:00C8H         PUBLIC        T2CON
  C:100AH         PUBLIC        PWM_Init
  D:00D3H         PUBLIC        PWM1H
  D:00D4H         PUBLIC        PWM2H
  D:00DCH         PUBLIC        PWM2L
  D:00DEH         PUBLIC        PIOCON0
  D:00D0H         PUBLIC        PSW
  C:0E29H         PUBLIC        _PWM_Stop
  -------         PROC          PWM_INIT
  C:100AH         LINE#         27
  C:100AH         LINE#         28
  C:100AH         LINE#         29
  C:100DH         LINE#         30
  C:1010H         LINE#         31
  C:1013H         LINE#         32
  C:1019H         LINE#         33
  -------         ENDPROC       PWM_INIT
  -------         PROC          _PWM_CREATEDPERIODDUTY
  D:0047H         SYMBOL        pwmDuty
  -------         DO            
  D:0049H         SYMBOL        vruiPwmDuty
  -------         ENDDO         
  C:0F44H         LINE#         42
  C:0F48H         LINE#         43
  C:0F48H         LINE#         45
  C:0F4BH         LINE#         46
  C:0F51H         LINE#         47
  C:0F54H         LINE#         48
  C:0F57H         LINE#         49
  C:0F5EH         LINE#         50
  C:0F61H         LINE#         51
  C:0F64H         LINE#         52
  -------         ENDPROC       _PWM_CREATEDPERIODDUTY
  -------         PROC          _PWM_STOP
  D:004BH         SYMBOL        pwmDuty
  -------         DO            
  D:004DH         SYMBOL        i
  -------         ENDDO         
  C:0E29H         LINE#         60
  C:0E2DH         LINE#         61
  C:0E2DH         LINE#         63
  C:0E3EH         LINE#         64
  C:0E3EH         LINE#         65
  C:0E45H         LINE#         66
  C:0E4CH         LINE#         67
  C:0E59H         LINE#         68
  -------         ENDPROC       _PWM_STOP
  -------         PROC          _PWM_START
  D:004FH         SYMBOL        pwmDuty
  -------         DO            
BL51 BANKED LINKER/LOCATER V6.22.2.0                                                  03/13/2021  16:33:25  PAGE 13


  D:0051H         SYMBOL        i
  -------         ENDDO         
  C:0DF7H         LINE#         76
  C:0DFBH         LINE#         77
  C:0DFBH         LINE#         79
  C:0E0CH         LINE#         80
  C:0E0CH         LINE#         81
  C:0E13H         LINE#         82
  C:0E1AH         LINE#         83
  C:0E28H         LINE#         85
  -------         ENDPROC       _PWM_START
  -------         ENDMOD        PWM

  -------         MODULE        TIMER
  C:0000H         SYMBOL        _ICE_DUMMY_
  D:0080H         PUBLIC        P0
  D:0090H         PUBLIC        P1
  D:00A0H         PUBLIC        P2
  D:00B0H         PUBLIC        P3
  D:00D8H         PUBLIC        PWMCON0
  D:00A8H         PUBLIC        IE
  D:00B8H         PUBLIC        IP
  C:0F1FH         PUBLIC        _TIMER_Disable
  C:0EFAH         PUBLIC        _TIMER_Enable
  D:0098H         PUBLIC        SCON
  D:0089H         PUBLIC        TMOD
  D:0088H         PUBLIC        TCON
  D:00F8H         PUBLIC        SCON_1
  D:008CH         PUBLIC        TH0
  D:008AH         PUBLIC        TL0
  D:00E8H         PUBLIC        ADCCON0
  D:00C0H         PUBLIC        I2CON
  C:0D0DH         PUBLIC        Timer0Overflow_ISR
  D:005FH         PUBLIC        p_timerCallBack
  D:00C8H         PUBLIC        T2CON
  D:00C4H         PUBLIC        T3CON
  C:0FE6H         PUBLIC        _TIMER_CallBackInit
  D:008EH         PUBLIC        CKCON
  C:0E85H         PUBLIC        _TIMER_Init
  D:00D0H         PUBLIC        PSW
  -------         PROC          _TIMER_INIT
  D:0070H         SYMBOL        channel
  C:0E85H         LINE#         28
  C:0E87H         LINE#         29
  C:0E87H         LINE#         30
  C:0E9CH         LINE#         31
  C:0E9CH         LINE#         32
  C:0E9CH         LINE#         33
  C:0E9FH         LINE#         34
  C:0EA2H         LINE#         35
  C:0EA5H         LINE#         36
  C:0EA8H         LINE#         37
  C:0EA8H         LINE#         38
  C:0EA8H         LINE#         39
  C:0EA8H         LINE#         40
  C:0EA8H         LINE#         41
  C:0EA8H         LINE#         42
BL51 BANKED LINKER/LOCATER V6.22.2.0                                                  03/13/2021  16:33:25  PAGE 14


  C:0EA8H         LINE#         43
  C:0EA8H         LINE#         44
  C:0EA8H         LINE#         45
  C:0EA8H         LINE#         46
  C:0EA8H         LINE#         47
  C:0EADH         LINE#         48
  -------         ENDPROC       _TIMER_INIT
  -------         PROC          _TIMER_CALLBACKINIT
  D:005CH         SYMBOL        pHandle
  C:0FE6H         LINE#         56
  C:0FECH         LINE#         57
  C:0FECH         LINE#         58
  C:0FF8H         LINE#         59
  -------         ENDPROC       _TIMER_CALLBACKINIT
  -------         PROC          _TIMER_ENABLE
  D:0071H         SYMBOL        channel
  C:0EFAH         LINE#         67
  C:0EFCH         LINE#         68
  C:0EFCH         LINE#         69
  C:0F11H         LINE#         70
  C:0F11H         LINE#         71
  C:0F11H         LINE#         72
  C:0F14H         LINE#         73
  C:0F15H         LINE#         74
  C:0F15H         LINE#         75
  C:0F18H         LINE#         76
  C:0F18H         LINE#         77
  C:0F1BH         LINE#         78
  C:0F1BH         LINE#         79
  C:0F1EH         LINE#         80
  C:0F1EH         LINE#         81
  C:0F1EH         LINE#         82
  C:0F1EH         LINE#         83
  -------         ENDPROC       _TIMER_ENABLE
  -------         PROC          _TIMER_DISABLE
  D:0072H         SYMBOL        channel
  C:0F1FH         LINE#         91
  C:0F21H         LINE#         92
  C:0F21H         LINE#         93
  C:0F36H         LINE#         94
  C:0F36H         LINE#         95
  C:0F36H         LINE#         96
  C:0F39H         LINE#         97
  C:0F3AH         LINE#         98
  C:0F3AH         LINE#         99
  C:0F3DH         LINE#         100
  C:0F3DH         LINE#         101
  C:0F40H         LINE#         102
  C:0F40H         LINE#         103
  C:0F43H         LINE#         104
  C:0F43H         LINE#         105
  C:0F43H         LINE#         106
  C:0F43H         LINE#         107
  -------         ENDPROC       _TIMER_DISABLE
  -------         PROC          TIMER0OVERFLOW_ISR
  C:0D0DH         LINE#         115
  C:0D2AH         LINE#         117
BL51 BANKED LINKER/LOCATER V6.22.2.0                                                  03/13/2021  16:33:25  PAGE 15


  C:0D4FH         LINE#         118
  C:0D4FH         LINE#         119
  C:0D58H         LINE#         120
  C:0D58H         LINE#         121
  -------         ENDPROC       TIMER0OVERFLOW_ISR
  -------         ENDMOD        TIMER

  -------         MODULE        QUEUE
  C:0000H         SYMBOL        _ICE_DUMMY_
  D:0080H         PUBLIC        P0
  D:0090H         PUBLIC        P1
  D:00A0H         PUBLIC        P2
  D:00B0H         PUBLIC        P3
  D:00D8H         PUBLIC        PWMCON0
  C:0917H         PUBLIC        _QUEUE_Get
  C:078FH         PUBLIC        _QUEUE_Push
  D:00A8H         PUBLIC        IE
  D:00B8H         PUBLIC        IP
  D:0098H         PUBLIC        SCON
  D:0088H         PUBLIC        TCON
  D:00F8H         PUBLIC        SCON_1
  D:00E8H         PUBLIC        ADCCON0
  D:00C0H         PUBLIC        I2CON
  D:00C8H         PUBLIC        T2CON
  C:0FBCH         PUBLIC        _QUEUE_Count
  C:0F65H         PUBLIC        _QUEUE_Empty
  D:00D0H         PUBLIC        PSW
  C:0BBCH         PUBLIC        _QUEUE_Init
  -------         PROC          _QUEUE_INIT
  D:001BH         SYMBOL        q
  D:001EH         SYMBOL        buffer
  D:0021H         SYMBOL        queue_size
  D:0022H         SYMBOL        element_size
  C:0BBCH         LINE#         22
  C:0BC2H         LINE#         23
  C:0BC2H         LINE#         24
  C:0BD5H         LINE#         25
  C:0BE8H         LINE#         26
  C:0BF8H         LINE#         27
  C:0C09H         LINE#         28
  C:0C1AH         LINE#         29
  C:0C2FH         LINE#         30
  -------         ENDPROC       _QUEUE_INIT
  -------         PROC          _QUEUE_PUSH
  D:0029H         SYMBOL        q
  D:002CH         SYMBOL        buffer
  C:078FH         LINE#         36
  C:0795H         LINE#         37
  C:0795H         LINE#         38
  C:07B6H         LINE#         39
  C:07B6H         LINE#         40
  C:07F6H         LINE#         41
  C:07F6H         LINE#         42
  C:0809H         LINE#         43
  C:0809H         LINE#         45
  C:082DH         LINE#         46
  C:083EH         LINE#         47
BL51 BANKED LINKER/LOCATER V6.22.2.0                                                  03/13/2021  16:33:25  PAGE 16


  C:083EH         LINE#         49
  C:087EH         LINE#         50
  C:087EH         LINE#         51
  C:0891H         LINE#         52
  C:0891H         LINE#         54
  C:08DFH         LINE#         55
  C:0903H         LINE#         57
  C:0914H         LINE#         59
  C:0916H         LINE#         60
  -------         ENDPROC       _QUEUE_PUSH
  -------         PROC          _QUEUE_GET
  D:002FH         SYMBOL        q
  D:0032H         SYMBOL        buffer
  C:0917H         LINE#         66
  C:091DH         LINE#         67
  C:091DH         LINE#         68
  C:092CH         LINE#         69
  C:092CH         LINE#         70
  C:096CH         LINE#         71
  C:096CH         LINE#         72
  C:097FH         LINE#         73
  C:097FH         LINE#         75
  C:09CDH         LINE#         76
  C:09F1H         LINE#         77
  C:0A02H         LINE#         79
  C:0A05H         LINE#         80
  C:0A05H         LINE#         82
  C:0A07H         LINE#         83
  -------         ENDPROC       _QUEUE_GET
  -------         PROC          _QUEUE_EMPTY
  D:0062H         SYMBOL        q
  C:0F65H         LINE#         89
  C:0F6BH         LINE#         90
  C:0F6BH         LINE#         91
  C:0F7EH         LINE#         92
  C:0F7EH         LINE#         93
  C:0F81H         LINE#         94
  C:0F81H         LINE#         95
  C:0F83H         LINE#         96
  -------         ENDPROC       _QUEUE_EMPTY
  -------         PROC          _QUEUE_COUNT
  D:0065H         SYMBOL        q
  C:0FBCH         LINE#         102
  C:0FC2H         LINE#         103
  C:0FC2H         LINE#         104
  C:0FD2H         LINE#         105
  -------         ENDPROC       _QUEUE_COUNT
  -------         ENDMOD        QUEUE

  -------         MODULE        ?C?FPADD
  C:002DH         PUBLIC        ?C?FPADD
  C:0029H         PUBLIC        ?C?FPSUB
  -------         ENDMOD        ?C?FPADD

  -------         MODULE        ?C?FPMUL
  C:011EH         PUBLIC        ?C?FPMUL
  -------         ENDMOD        ?C?FPMUL
BL51 BANKED LINKER/LOCATER V6.22.2.0                                                  03/13/2021  16:33:25  PAGE 17



  -------         MODULE        ?C?FPDIV
  C:0227H         PUBLIC        ?C?FPDIV
  -------         ENDMOD        ?C?FPDIV

  -------         MODULE        ?C?FCAST
  C:02CEH         PUBLIC        ?C?FCASTC
  C:02C9H         PUBLIC        ?C?FCASTI
  C:02C4H         PUBLIC        ?C?FCASTL
  -------         ENDMOD        ?C?FCAST

  -------         MODULE        ?C?CASTF
  C:0302H         PUBLIC        ?C?CASTF
  -------         ENDMOD        ?C?CASTF

  -------         MODULE        ?C?COPY
  C:0453H         PUBLIC        ?C?COPY
  -------         ENDMOD        ?C?COPY

  -------         MODULE        ?C?CLDOPTR
  C:0479H         PUBLIC        ?C?CLDOPTR
  -------         ENDMOD        ?C?CLDOPTR

  -------         MODULE        ?C?CILDOPTR
  C:04A6H         PUBLIC        ?C?CILDOPTR
  -------         ENDMOD        ?C?CILDOPTR

  -------         MODULE        ?C?CSTOPTR
  C:04D9H         PUBLIC        ?C?CSTOPTR
  -------         ENDMOD        ?C?CSTOPTR

  -------         MODULE        ?C?ILDOPTR
  C:04FBH         PUBLIC        ?C?ILDOPTR
  -------         ENDMOD        ?C?ILDOPTR

  -------         MODULE        ?C?IILDOPTR
  C:0533H         PUBLIC        ?C?IILDOPTR
  -------         ENDMOD        ?C?IILDOPTR

  -------         MODULE        ?C?ISTOPTR
  C:0580H         PUBLIC        ?C?ISTOPTR
  -------         ENDMOD        ?C?ISTOPTR

  -------         MODULE        ?C?ULDIV
  C:05E9H         PUBLIC        ?C?ULDIV
  -------         ENDMOD        ?C?ULDIV

  -------         MODULE        ?C?LNEG
  C:067BH         PUBLIC        ?C?LNEG
  -------         ENDMOD        ?C?LNEG

  -------         MODULE        ?C?ULSHR
  C:0689H         PUBLIC        ?C?ULSHR
  -------         ENDMOD        ?C?ULSHR

  -------         MODULE        ?C?PLDPTR
  C:069CH         PUBLIC        ?C?PLDPTR
BL51 BANKED LINKER/LOCATER V6.22.2.0                                                  03/13/2021  16:33:25  PAGE 18


  -------         ENDMOD        ?C?PLDPTR

  -------         MODULE        ?C?PSTPTR
  C:06BCH         PUBLIC        ?C?PSTPTR
  -------         ENDMOD        ?C?PSTPTR

  -------         MODULE        ?C?CCASE
  C:070BH         PUBLIC        ?C?CCASE
  -------         ENDMOD        ?C?CCASE

  -------         MODULE        ?C?ICALL
  C:0731H         PUBLIC        ?C?ICALL
  C:0735H         PUBLIC        ?C?ICALL2
  -------         ENDMOD        ?C?ICALL

  -------         MODULE        ?C?IILDX
  C:0737H         PUBLIC        ?C?IILDX
  -------         ENDMOD        ?C?IILDX

  -------         MODULE        ?C?PLDIDATA
  C:074DH         PUBLIC        ?C?PLDIDATA
  -------         ENDMOD        ?C?PLDIDATA

  -------         MODULE        ?C?PSTIDATA
  C:0756H         PUBLIC        ?C?PSTIDATA
  -------         ENDMOD        ?C?PSTIDATA

  -------         MODULE        ?C?PLDXDATA
  C:075FH         PUBLIC        ?C?PLDXDATA
  -------         ENDMOD        ?C?PLDXDATA

  -------         MODULE        ?C?PSTXDATA
  C:0768H         PUBLIC        ?C?PSTXDATA
  -------         ENDMOD        ?C?PSTXDATA

  -------         MODULE        ?C?PLDPDATA
  C:0771H         PUBLIC        ?C?PLDPDATA
  -------         ENDMOD        ?C?PLDPDATA

  -------         MODULE        ?C?PSTPDATA
  C:077AH         PUBLIC        ?C?PSTPDATA
  -------         ENDMOD        ?C?PSTPDATA

  -------         MODULE        ?C?PLDCODE
  C:0783H         PUBLIC        ?C?PLDCODE
  -------         ENDMOD        ?C?PLDCODE

*** WARNING L16: UNCALLED SEGMENT, IGNORED FOR OVERLAY PROCESS
    SEGMENT: ?PR?HANDLEUART?MAIN

*** WARNING L16: UNCALLED SEGMENT, IGNORED FOR OVERLAY PROCESS
    SEGMENT: ?PR?_MOTOR_GETCURRENTSPEED?MOTOR

*** WARNING L16: UNCALLED SEGMENT, IGNORED FOR OVERLAY PROCESS
    SEGMENT: ?PR?RELAY_UP?RELAY

*** WARNING L16: UNCALLED SEGMENT, IGNORED FOR OVERLAY PROCESS
BL51 BANKED LINKER/LOCATER V6.22.2.0                                                  03/13/2021  16:33:25  PAGE 19


    SEGMENT: ?PR?RELAY_UPRESET?RELAY

*** WARNING L16: UNCALLED SEGMENT, IGNORED FOR OVERLAY PROCESS
    SEGMENT: ?PR?RELAY_DOWN?RELAY

*** WARNING L16: UNCALLED SEGMENT, IGNORED FOR OVERLAY PROCESS
    SEGMENT: ?PR?RELAY_DOWNRESET?RELAY

*** WARNING L16: UNCALLED SEGMENT, IGNORED FOR OVERLAY PROCESS
    SEGMENT: ?PR?_UART_INIT?UART

*** WARNING L16: UNCALLED SEGMENT, IGNORED FOR OVERLAY PROCESS
    SEGMENT: ?PR?UART_ENABLE?UART

*** WARNING L16: UNCALLED SEGMENT, IGNORED FOR OVERLAY PROCESS
    SEGMENT: ?PR?_UART_SENDDATA?UART

*** WARNING L16: UNCALLED SEGMENT, IGNORED FOR OVERLAY PROCESS
    SEGMENT: ?PR?MODIFY_HIRC166?UART

*** WARNING L16: UNCALLED SEGMENT, IGNORED FOR OVERLAY PROCESS
    SEGMENT: ?PR?_UART_CALLBACKINIT?UART

*** WARNING L16: UNCALLED SEGMENT, IGNORED FOR OVERLAY PROCESS
    SEGMENT: ?PR?_PWM_STOP?PWM

*** WARNING L16: UNCALLED SEGMENT, IGNORED FOR OVERLAY PROCESS
    SEGMENT: ?PR?_PWM_START?PWM

*** WARNING L16: UNCALLED SEGMENT, IGNORED FOR OVERLAY PROCESS
    SEGMENT: ?PR?_TIMER_INIT?TIMER

*** WARNING L16: UNCALLED SEGMENT, IGNORED FOR OVERLAY PROCESS
    SEGMENT: ?PR?_TIMER_CALLBACKINIT?TIMER

*** WARNING L16: UNCALLED SEGMENT, IGNORED FOR OVERLAY PROCESS
    SEGMENT: ?PR?_TIMER_ENABLE?TIMER

*** WARNING L16: UNCALLED SEGMENT, IGNORED FOR OVERLAY PROCESS
    SEGMENT: ?PR?_QUEUE_INIT?QUEUE

*** WARNING L16: UNCALLED SEGMENT, IGNORED FOR OVERLAY PROCESS
    SEGMENT: ?PR?_QUEUE_GET?QUEUE

*** WARNING L16: UNCALLED SEGMENT, IGNORED FOR OVERLAY PROCESS
    SEGMENT: ?PR?_QUEUE_EMPTY?QUEUE

Program Size: data=116.0 xdata=4 code=4183
LINK/LOCATE RUN COMPLETE.  19 WARNING(S),  0 ERROR(S)
